(lp0
V/static/nourineGraphs/Daptomycin.png
p1
ac__builtin__
id
p2
aVDaptomycin
p3
aV/static/designedGraphs/Daptomycin.png
p4
aS'<table id="table_old" class="display table table-striped table-bordered" width="100%">\n\t        <col width="220">\n\t        <col width="220">\n\t        <col width="220">\n\t        <col width="220">\n\t        <col width="220">\n\t        \n\t        <thead>\n\t            <tr>\n\t            <th>Index</th>\n\t        \n\t                <th>A1</th>\n\t            \n\t                <th>Linker</th>\n\t            \n\t                <th>A2</th>\n\t            \n\t                <th>Antibiotic</th>\n\t            \n\t                <th>MIBiD_ID</th>\n\t            \n\t                <th>Length</th>\n\t            \n\t                <th>Cluster</th>\n\t            </tr>\n\t        </thead>\n\t        <tfoot>\n\t            <tr>\n\t            <th>Index</th>\n\t            \n\t                <th>A1</th>\n\t            \n\t                <th>Linker</th>\n\t            \n\t                <th>A2</th>\n\t            \n\t                <th>Antibiotic</th>\n\t            \n\t                <th>MIBiD_ID</th>\n\t            \n\t                <th>Length</th>\n\t            \n\t                <th>Cluster</th>\n\t            </tr>\n\t        </tfoot>\n\t        <tbody>\n\t            <tr>\n\t                <td>299</td>\n\t                \n\t                    <td>trp</td>\n\t                    \n\t                    <td>GRQHTTPPLPPR</td>\n\t                    \n\t                    <td>asn</td>\n\t                    \n\t                    <td>Daptomycin biosynthetic gene cluster</td>\n\t                    \n\t                    <td>BGC0000336.1</td>\n\t                    \n\t                    <td>12</td>\n\t                    \n\t                    <td>BGC0000336.1.cluster001.gbk</td>\n\t                    \n\t            </tr>\n\t            <tr>\n\t                <td>300</td>\n\t                \n\t                    <td>asn</td>\n\t                    \n\t                    <td>EPAAWDEIRAGGPAVGRTVREIKECLRTLPDQGLGYGILRYLDPENGPAL...</td>\n\t                    \n\t                    <td>asp</td>\n\t                    \n\t                    <td>Daptomycin biosynthetic gene cluster</td>\n\t                    \n\t                    <td>BGC0000336.1</td>\n\t                    \n\t                    <td>211</td>\n\t                    \n\t                    <td>BGC0000336.1.cluster001.gbk</td>\n\t                    \n\t            </tr>\n\t            <tr>\n\t                <td>308</td>\n\t                \n\t                    <td>glu</td>\n\t                    \n\t                    <td>RSGAPVRAPLTARERT</td>\n\t                    \n\t                    <td>kyn</td>\n\t                    \n\t                    <td>Daptomycin biosynthetic gene cluster</td>\n\t                    \n\t                    <td>BGC0000336.1</td>\n\t                    \n\t                    <td>16</td>\n\t                    \n\t                    <td>BGC0000336.1.cluster001.gbk</td>\n\t                    \n\t            </tr>\n\t        </tbody>\n\t    </table>'
p5
aS'<table id="table_new" class="display table table-striped table-bordered" width="100%">\n\t        <col width="220">\n\t        <col width="220">\n\t        <col width="220">\n\t        <col width="220">\n\t        <col width="220">\n\t        \n\t        <thead>\n\t            <tr>\n\t            <th>Index</th>\n\t        \n\t                <th>A1</th>\n\t            \n\t                <th>Linker</th>\n\t            \n\t                <th>A2</th>\n\t            \n\t                <th>Length</th>\n\t            \n\t                <th>Description</th>\n\t            \n\t                <th>Cluster</th>\n\t            </tr>\n\t        </thead>\n\t        <tfoot>\n\t            <tr>\n\t            <th>Index</th>\n\t            \n\t                <th>A1</th>\n\t            \n\t                <th>Linker</th>\n\t            \n\t                <th>A2</th>\n\t            \n\t                <th>Length</th>\n\t            \n\t                <th>Description</th>\n\t            \n\t                <th>Cluster</th>\n\t            </tr>\n\t        </tfoot>\n\t        <tbody>\n\t            <tr>\n\t                <td>15271</td>\n\t                \n\t                    <td>trp</td>\n\t                    \n\t                    <td>EVGWAEVRAGGDGVGRAVKRVKEQLRAVPDHGVGFGLLRYLRPEAGAVLA...</td>\n\t                    \n\t                    <td>ser</td>\n\t                    \n\t                    <td>173</td>\n\t                    \n\t                    <td>Actinokineospora spheciospongiae strain EG49 conti...</td>\n\t                    \n\t                    <td>NZ_AYXG01000001.1.cluster011.gbk</td>\n\t                    \n\t            </tr>\n\t            <tr>\n\t                <td>29058</td>\n\t                \n\t                    <td>trp</td>\n\t                    \n\t                    <td>AADLGGAFEGGHAAGVVIKTVKEQLVAVPARGVGFGLLRHLDESARPILG...</td>\n\t                    \n\t                    <td>ser</td>\n\t                    \n\t                    <td>183</td>\n\t                    \n\t                    <td>Rhodococcus wratislaviensis NBRC 100605, whole gen...</td>\n\t                    \n\t                    <td>NZ_BAWF01000137.1.cluster004.gbk</td>\n\t                    \n\t            </tr>\n\t            <tr>\n\t                <td>38450</td>\n\t                \n\t                    <td>trp</td>\n\t                    \n\t                    <td>LAGSGSRAPLVAGER</td>\n\t                    \n\t                    <td>ser</td>\n\t                    \n\t                    <td>15</td>\n\t                    \n\t                    <td>Nocardia seriolae strain N-2927, whole genome shot...</td>\n\t                    \n\t                    <td>NZ_BAWD02000312.1.cluster004.gbk</td>\n\t                    \n\t            </tr>\n\t            <tr>\n\t                <td>50</td>\n\t                \n\t                    <td>glu</td>\n\t                    \n\t                    <td>EKQEFAAIKPAE</td>\n\t                    \n\t                    <td>leu</td>\n\t                    \n\t                    <td>12</td>\n\t                    \n\t                    <td>Bacillus atrophaeus Detrick-3 contig00023, whole g...</td>\n\t                    \n\t                    <td>NZ_AEFR01000030.1.cluster005.gbk</td>\n\t                    \n\t            </tr>\n\t            <tr>\n\t                <td>354</td>\n\t                \n\t                    <td>glu</td>\n\t                    \n\t                    <td>NEGSAFSAIEPAEK</td>\n\t                    \n\t                    <td>leu</td>\n\t                    \n\t                    <td>14</td>\n\t                    \n\t                    <td>Bacillus amyloliquefaciens strain XK-4-1 C391, who...</td>\n\t                    \n\t                    <td>NZ_LJDI01000022.1.cluster001.gbk</td>\n\t                    \n\t            </tr>\n\t            <tr>\n\t                <td>484</td>\n\t                \n\t                    <td>glu</td>\n\t                    \n\t                    <td>RESREFSVIEPAEK</td>\n\t                    \n\t                    <td>leu</td>\n\t                    \n\t                    <td>14</td>\n\t                    \n\t                    <td>Bacillus subtilis Hal1 Contig102, whole genome sho...</td>\n\t                    \n\t                    <td>NZ_AMCA01000001.1.cluster007.gbk</td>\n\t                    \n\t            </tr>\n\t            <tr>\n\t                <td>551</td>\n\t                \n\t                    <td>glu</td>\n\t                    \n\t                    <td>NEGPAFSAIEPAEK</td>\n\t                    \n\t                    <td>leu</td>\n\t                    \n\t                    <td>14</td>\n\t                    \n\t                    <td>Bacillus methylotrophicus AS43.3, complete genome.</td>\n\t                    \n\t                    <td>NC_019842.1.cluster001.gbk</td>\n\t                    \n\t            </tr>\n\t            <tr>\n\t                <td>720</td>\n\t                \n\t                    <td>glu</td>\n\t                    \n\t                    <td>NEGPAFRAIEPAEK</td>\n\t                    \n\t                    <td>leu</td>\n\t                    \n\t                    <td>14</td>\n\t                    \n\t                    <td>Bacillus amyloliquefaciens strain L-H15, complete ...</td>\n\t                    \n\t                    <td>NZ_CP010556.1.cluster001.gbk</td>\n\t                    \n\t            </tr>\n\t            <tr>\n\t                <td>735</td>\n\t                \n\t                    <td>glu</td>\n\t                    \n\t                    <td>ERSSQVVIPKAPL</td>\n\t                    \n\t                    <td>leu</td>\n\t                    \n\t                    <td>13</td>\n\t                    \n\t                    <td>Bacillus xiamenensis strain HYC-10 contig39, whole...</td>\n\t                    \n\t                    <td>NZ_AMSH01000001.1.cluster002.gbk</td>\n\t                    \n\t            </tr>\n\t            <tr>\n\t                <td>829</td>\n\t                \n\t                    <td>glu</td>\n\t                    \n\t                    <td>RNEGPAFSTIEPAEK</td>\n\t                    \n\t                    <td>leu</td>\n\t                    \n\t                    <td>15</td>\n\t                    \n\t                    <td>Bacillus amyloliquefaciens strain SRCM101266 conti...</td>\n\t                    \n\t                    <td>NZ_LYUG01000001.1.cluster007.gbk</td>\n\t                    \n\t            </tr>\n\t            <tr>\n\t                <td>1043</td>\n\t                \n\t                    <td>glu</td>\n\t                    \n\t                    <td>REIQEFAAIEPAE</td>\n\t                    \n\t                    <td>leu</td>\n\t                    \n\t                    <td>13</td>\n\t                    \n\t                    <td>Bacillus subtilis subsp. spizizenii RFWG1A3 contig...</td>\n\t                    \n\t                    <td>NZ_AJHL01000001.1.cluster001.gbk</td>\n\t                    \n\t            </tr>\n\t            <tr>\n\t                <td>1071</td>\n\t                \n\t                    <td>glu</td>\n\t                    \n\t                    <td>RESKAFAVIEPAE</td>\n\t                    \n\t                    <td>leu</td>\n\t                    \n\t                    <td>13</td>\n\t                    \n\t                    <td>Bacillus subtilis strain LK22, whole genome shotgu...</td>\n\t                    \n\t                    <td>NZ_LDUW01000001.1.cluster001.gbk</td>\n\t                    \n\t            </tr>\n\t            <tr>\n\t                <td>1482</td>\n\t                \n\t                    <td>glu</td>\n\t                    \n\t                    <td>DRSSETVIPKAPA</td>\n\t                    \n\t                    <td>leu</td>\n\t                    \n\t                    <td>13</td>\n\t                    \n\t                    <td>Bacillus pumilus strain LK21, whole genome shotgun...</td>\n\t                    \n\t                    <td>NZ_LDWK01000001.1.cluster001.gbk</td>\n\t                    \n\t            </tr>\n\t            <tr>\n\t                <td>1631</td>\n\t                \n\t                    <td>glu</td>\n\t                    \n\t                    <td>NEGPAFRAIEPAEK</td>\n\t                    \n\t                    <td>leu</td>\n\t                    \n\t                    <td>14</td>\n\t                    \n\t                    <td>Bacillus velezensis strain AH159-1 contig00154, wh...</td>\n\t                    \n\t                    <td>NZ_JFBZ01000001.1.cluster009.gbk</td>\n\t                    \n\t            </tr>\n\t            <tr>\n\t                <td>2390</td>\n\t                \n\t                    <td>glu</td>\n\t                    \n\t                    <td>EKQEFAAIKPAE</td>\n\t                    \n\t                    <td>leu</td>\n\t                    \n\t                    <td>12</td>\n\t                    \n\t                    <td>Bacillus atrophaeus BACI051-N contig00036, whole g...</td>\n\t                    \n\t                    <td>NZ_AEFY01000078.1.cluster007.gbk</td>\n\t                    \n\t            </tr>\n\t            <tr>\n\t                <td>2557</td>\n\t                \n\t                    <td>glu</td>\n\t                    \n\t                    <td>ETSSETLIPKAPA</td>\n\t                    \n\t                    <td>leu</td>\n\t                    \n\t                    <td>13</td>\n\t                    \n\t                    <td>Bacillus pumilus strain 7P scaffold00003, whole ge...</td>\n\t                    \n\t                    <td>NZ_JHUD02000001.1.cluster002.gbk</td>\n\t                    \n\t            </tr>\n\t            <tr>\n\t                <td>2720</td>\n\t                \n\t                    <td>glu</td>\n\t                    \n\t                    <td>EKQEFAAIKPAE</td>\n\t                    \n\t                    <td>leu</td>\n\t                    \n\t                    <td>12</td>\n\t                    \n\t                    <td>Bacillus atrophaeus strain DJHJ8, whole genome sho...</td>\n\t                    \n\t                    <td>NZ_BDDH01000001.1.cluster006.gbk</td>\n\t                    \n\t            </tr>\n\t            <tr>\n\t                <td>3363</td>\n\t                \n\t                    <td>glu</td>\n\t                    \n\t                    <td>NEGPAFSTIEPAEK</td>\n\t                    \n\t                    <td>leu</td>\n\t                    \n\t                    <td>14</td>\n\t                    \n\t                    <td>Bacillus amyloliquefaciens strain 629 contig_2, wh...</td>\n\t                    \n\t                    <td>NZ_LGYP01000001.1.cluster003.gbk</td>\n\t                    \n\t            </tr>\n\t            <tr>\n\t                <td>3917</td>\n\t                \n\t                    <td>glu</td>\n\t                    \n\t                    <td>EKQEFAAIKPAE</td>\n\t                    \n\t                    <td>leu</td>\n\t                    \n\t                    <td>12</td>\n\t                    \n\t                    <td>Bacillus atrophaeus BACI051-E contig00018, whole g...</td>\n\t                    \n\t                    <td>NZ_AEFX01000035.1.cluster009.gbk</td>\n\t                    \n\t            </tr>\n\t            <tr>\n\t                <td>4152</td>\n\t                \n\t                    <td>glu</td>\n\t                    \n\t                    <td>EKQEFAAIKPAE</td>\n\t                    \n\t                    <td>leu</td>\n\t                    \n\t                    <td>12</td>\n\t                    \n\t                    <td>Bacillus atrophaeus strain NRS 1221A, complete gen...</td>\n\t                    \n\t                    <td>NZ_CP010778.1.cluster006.gbk</td>\n\t                    \n\t            </tr>\n\t            <tr>\n\t                <td>4383</td>\n\t                \n\t                    <td>glu</td>\n\t                    \n\t                    <td>NEGPAFSAIEPAEK</td>\n\t                    \n\t                    <td>leu</td>\n\t                    \n\t                    <td>14</td>\n\t                    \n\t                    <td>Bacillus velezensis strain CFSAN034339 NODE_8_leng...</td>\n\t                    \n\t                    <td>NZ_LYNB01000001.1.cluster011.gbk</td>\n\t                    \n\t            </tr>\n\t            <tr>\n\t                <td>4435</td>\n\t                \n\t                    <td>glu</td>\n\t                    \n\t                    <td>REIQEFAAIEPAE</td>\n\t                    \n\t                    <td>leu</td>\n\t                    \n\t                    <td>13</td>\n\t                    \n\t                    <td>Bacillus subtilis subsp. spizizenii str. W23, comp...</td>\n\t                    \n\t                    <td>NC_014479.1.cluster001.gbk</td>\n\t                    \n\t            </tr>\n\t            <tr>\n\t                <td>4454</td>\n\t                \n\t                    <td>glu</td>\n\t                    \n\t                    <td>RESKAFAVIEPAE</td>\n\t                    \n\t                    <td>leu</td>\n\t                    \n\t                    <td>13</td>\n\t                    \n\t                    <td>Bacillus subtilis strain CGMCC63528 contig9, whole...</td>\n\t                    \n\t                    <td>NZ_JWHO01000010.1.cluster009.gbk</td>\n\t                    \n\t            </tr>\n\t            <tr>\n\t                <td>4498</td>\n\t                \n\t                    <td>glu</td>\n\t                    \n\t                    <td>EKQEFAAIKPAE</td>\n\t                    \n\t                    <td>leu</td>\n\t                    \n\t                    <td>12</td>\n\t                    \n\t                    <td>Bacillus atrophaeus Detrick-2 contig00037, whole g...</td>\n\t                    \n\t                    <td>NZ_AEFQ01000047.1.cluster003.gbk</td>\n\t                    \n\t            </tr>\n\t            <tr>\n\t                <td>4539</td>\n\t                \n\t                    <td>glu</td>\n\t                    \n\t                    <td>NEGPAFRAIEPAEK</td>\n\t                    \n\t                    <td>leu</td>\n\t                    \n\t                    <td>14</td>\n\t                    \n\t                    <td>Bacillus velezensis M27 contig19, whole genome sho...</td>\n\t                    \n\t                    <td>NZ_AMPK01000001.1.cluster008.gbk</td>\n\t                    \n\t            </tr>\n\t            <tr>\n\t                <td>4590</td>\n\t                \n\t                    <td>glu</td>\n\t                    \n\t                    <td>RESRAFAAIEPAD</td>\n\t                    \n\t                    <td>leu</td>\n\t                    \n\t                    <td>13</td>\n\t                    \n\t                    <td>Bacillus subtilis gtP20b, whole genome shotgun seq...</td>\n\t                    \n\t                    <td>NZ_AEHM01000084.1.cluster011.gbk</td>\n\t                    \n\t            </tr>\n\t            <tr>\n\t                <td>4941</td>\n\t                \n\t                    <td>glu</td>\n\t                    \n\t                    <td>DRSIQAPPNLIPARATRITPGMLPLVALTQTQIDMLAVQVEGGAAN</td>\n\t                    \n\t                    <td>leu</td>\n\t                    \n\t                    <td>46</td>\n\t                    \n\t                    <td>Burkholderia pseudomallei strain BGH scaffold2, wh...</td>\n\t                    \n\t                    <td>NZ_KN150943.1.cluster004.gbk</td>\n\t                    \n\t            </tr>\n\t            <tr>\n\t                <td>5298</td>\n\t                \n\t                    <td>glu</td>\n\t                    \n\t                    <td>ERSSETVIPKAPA</td>\n\t                    \n\t                    <td>leu</td>\n\t                    \n\t                    <td>13</td>\n\t                    \n\t                    <td>Bacillus pumilus strain Fairview contig31_2, whole...</td>\n\t                    \n\t                    <td>NZ_JFBY01000001.1.cluster002.gbk</td>\n\t                    \n\t            </tr>\n\t            <tr>\n\t                <td>5373</td>\n\t                \n\t                    <td>glu</td>\n\t                    \n\t                    <td>RESKAFAVIEPAE</td>\n\t                    \n\t                    <td>leu</td>\n\t                    \n\t                    <td>13</td>\n\t                    \n\t                    <td>Bacillus sp. LM 4-2, complete genome.</td>\n\t                    \n\t                    <td>NZ_CP011101.1.cluster001.gbk</td>\n\t                    \n\t            </tr>\n\t            <tr>\n\t                <td>5422</td>\n\t                \n\t                    <td>glu</td>\n\t                    \n\t                    <td>REIQEFAAIEPAE</td>\n\t                    \n\t                    <td>leu</td>\n\t                    \n\t                    <td>13</td>\n\t                    \n\t                    <td>Bacillus subtilis subsp. spizizenii ATCC 6633 cont...</td>\n\t                    \n\t                    <td>NZ_ADGS01000037.1.cluster001.gbk</td>\n\t                    \n\t            </tr>\n\t            <tr>\n\t                <td>5459</td>\n\t                \n\t                    <td>glu</td>\n\t                    \n\t                    <td>VSRNEGPDYSAIKPAEQ</td>\n\t                    \n\t                    <td>leu</td>\n\t                    \n\t                    <td>17</td>\n\t                    \n\t                    <td>Bacillus siamensis strain XY18 contig_16, whole ge...</td>\n\t                    \n\t                    <td>NZ_LAGT01000001.1.cluster003.gbk</td>\n\t                    \n\t            </tr>\n\t            <tr>\n\t                <td>5666</td>\n\t                \n\t                    <td>glu</td>\n\t                    \n\t                    <td>EKQEFAAIKPAE</td>\n\t                    \n\t                    <td>leu</td>\n\t                    \n\t                    <td>12</td>\n\t                    \n\t                    <td>Bacillus atrophaeus 1942, complete genome.</td>\n\t                    \n\t                    <td>NC_014639.1.cluster006.gbk</td>\n\t                    \n\t            </tr>\n\t            <tr>\n\t                <td>6024</td>\n\t                \n\t                    <td>glu</td>\n\t                    \n\t                    <td>EKSSQVVIPKAPT</td>\n\t                    \n\t                    <td>leu</td>\n\t                    \n\t                    <td>13</td>\n\t                    \n\t                    <td>Bacillus sp. TH007 contig_1, whole genome shotgun ...</td>\n\t                    \n\t                    <td>NZ_LNDH01000001.1.cluster001.gbk</td>\n\t                    \n\t            </tr>\n\t            <tr>\n\t                <td>6356</td>\n\t                \n\t                    <td>glu</td>\n\t                    \n\t                    <td>RESKAFAVIEPAE</td>\n\t                    \n\t                    <td>leu</td>\n\t                    \n\t                    <td>13</td>\n\t                    \n\t                    <td>Bacillus sp. FMQ74 NODE_9_length_198260_cov_120.71...</td>\n\t                    \n\t                    <td>NZ_MOEO01000010.1.cluster009.gbk</td>\n\t                    \n\t            </tr>\n\t            <tr>\n\t                <td>6816</td>\n\t                \n\t                    <td>glu</td>\n\t                    \n\t                    <td>NEGPAFNAIEPAEK</td>\n\t                    \n\t                    <td>leu</td>\n\t                    \n\t                    <td>14</td>\n\t                    \n\t                    <td>Bacillus velezensis strain KACC 18228 contig_8, wh...</td>\n\t                    \n\t                    <td>NZ_LLZA01000001.1.cluster007.gbk</td>\n\t                    \n\t            </tr>\n\t            <tr>\n\t                <td>6897</td>\n\t                \n\t                    <td>glu</td>\n\t                    \n\t                    <td>NEGPAFSAIEPAEK</td>\n\t                    \n\t                    <td>leu</td>\n\t                    \n\t                    <td>14</td>\n\t                    \n\t                    <td>Bacillus sp. Pc3, complete genome.</td>\n\t                    \n\t                    <td>NZ_CP010406.1.cluster003.gbk</td>\n\t                    \n\t            </tr>\n\t            <tr>\n\t                <td>6951</td>\n\t                \n\t                    <td>glu</td>\n\t                    \n\t                    <td>NEGPAFSAIEPAEK</td>\n\t                    \n\t                    <td>leu</td>\n\t                    \n\t                    <td>14</td>\n\t                    \n\t                    <td>Bacillus amyloliquefaciens subsp. plantarum UCMB50...</td>\n\t                    \n\t                    <td>NC_020410.1.cluster001.gbk</td>\n\t                    \n\t            </tr>\n\t            <tr>\n\t                <td>7303</td>\n\t                \n\t                    <td>glu</td>\n\t                    \n\t                    <td>NEGPAFRAIEPAEK</td>\n\t                    \n\t                    <td>leu</td>\n\t                    \n\t                    <td>14</td>\n\t                    \n\t                    <td>Bacillus amyloliquefaciens CC178, complete genome.</td>\n\t                    \n\t                    <td>NC_022653.1.cluster001.gbk</td>\n\t                    \n\t            </tr>\n\t            <tr>\n\t                <td>7699</td>\n\t                \n\t                    <td>glu</td>\n\t                    \n\t                    <td>EKSSQVIIPKAPT</td>\n\t                    \n\t                    <td>leu</td>\n\t                    \n\t                    <td>13</td>\n\t                    \n\t                    <td>Bacillus pumilus DNA, complete genome, strain: TUA...</td>\n\t                    \n\t                    <td>NZ_AP014928.1.cluster001.gbk</td>\n\t                    \n\t            </tr>\n\t            <tr>\n\t                <td>7733</td>\n\t                \n\t                    <td>glu</td>\n\t                    \n\t                    <td>RESKAFAVIEPAE</td>\n\t                    \n\t                    <td>leu</td>\n\t                    \n\t                    <td>13</td>\n\t                    \n\t                    <td>Bacillus subtilis strain HRBS-10TDI13, complete ge...</td>\n\t                    \n\t                    <td>NZ_CP015222.1.cluster002.gbk</td>\n\t                    \n\t            </tr>\n\t            <tr>\n\t                <td>7856</td>\n\t                \n\t                    <td>glu</td>\n\t                    \n\t                    <td>RNEGPAFSTIEPAEK</td>\n\t                    \n\t                    <td>leu</td>\n\t                    \n\t                    <td>15</td>\n\t                    \n\t                    <td>Bacillus amyloliquefaciens XH7, complete genome.</td>\n\t                    \n\t                    <td>NC_017191.1.cluster001.gbk</td>\n\t                    \n\t            </tr>\n\t            <tr>\n\t                <td>7881</td>\n\t                \n\t                    <td>glu</td>\n\t                    \n\t                    <td>ERSSETVIPKAPA</td>\n\t                    \n\t                    <td>leu</td>\n\t                    \n\t                    <td>13</td>\n\t                    \n\t                    <td>Bacillus sp. Root920 contig_1, whole genome shotgu...</td>\n\t                    \n\t                    <td>NZ_LMJV01000001.1.cluster001.gbk</td>\n\t                    \n\t            </tr>\n\t            <tr>\n\t                <td>8071</td>\n\t                \n\t                    <td>glu</td>\n\t                    \n\t                    <td>RESRAFSVIEPAE</td>\n\t                    \n\t                    <td>leu</td>\n\t                    \n\t                    <td>13</td>\n\t                    \n\t                    <td>Bacillus subtilis strain B4143 NODE_27, whole geno...</td>\n\t                    \n\t                    <td>NZ_JXLQ01000001.1.cluster004.gbk</td>\n\t                    \n\t            </tr>\n\t            <tr>\n\t                <td>8139</td>\n\t                \n\t                    <td>glu</td>\n\t                    \n\t                    <td>EKSSVTVIPKAPD</td>\n\t                    \n\t                    <td>leu</td>\n\t                    \n\t                    <td>13</td>\n\t                    \n\t                    <td>Bacillus safensis strain RP10 Scaffold00004, whole...</td>\n\t                    \n\t                    <td>NZ_MKXN01000001.1.cluster002.gbk</td>\n\t                    \n\t            </tr>\n\t            <tr>\n\t                <td>8170</td>\n\t                \n\t                    <td>glu</td>\n\t                    \n\t                    <td>EGRTFAAIEPAE</td>\n\t                    \n\t                    <td>leu</td>\n\t                    \n\t                    <td>12</td>\n\t                    \n\t                    <td>Bacillus mojavensis RRC 101 contig_2, whole genome...</td>\n\t                    \n\t                    <td>NZ_ASJT01000001.1.cluster001.gbk</td>\n\t                    \n\t            </tr>\n\t            <tr>\n\t                <td>8194</td>\n\t                \n\t                    <td>glu</td>\n\t                    \n\t                    <td>EKQEFAAIKPAE</td>\n\t                    \n\t                    <td>leu</td>\n\t                    \n\t                    <td>12</td>\n\t                    \n\t                    <td>Bacillus atrophaeus strain NRRL NRS 213 Bacillus_a...</td>\n\t                    \n\t                    <td>NZ_LSBB01000001.1.cluster002.gbk</td>\n\t                    \n\t            </tr>\n\t            <tr>\n\t                <td>8471</td>\n\t                \n\t                    <td>glu</td>\n\t                    \n\t                    <td>EGRTFAAIEPAE</td>\n\t                    \n\t                    <td>leu</td>\n\t                    \n\t                    <td>12</td>\n\t                    \n\t                    <td>Bacillus mojavensis RO-H-1 genomic scaffold gbs2c....</td>\n\t                    \n\t                    <td>NZ_JH600277.1.cluster002.gbk</td>\n\t                    \n\t            </tr>\n\t            <tr>\n\t                <td>8519</td>\n\t                \n\t                    <td>glu</td>\n\t                    \n\t                    <td>NEGPAFRAIEPAEK</td>\n\t                    \n\t                    <td>leu</td>\n\t                    \n\t                    <td>14</td>\n\t                    \n\t                    <td>Bacillus amyloliquefaciens subsp. plantarum str. F...</td>\n\t                    \n\t                    <td>NC_009725.1.cluster001.gbk</td>\n\t                    \n\t            </tr>\n\t            <tr>\n\t                <td>8524</td>\n\t                \n\t                    <td>glu</td>\n\t                    \n\t                    <td>EKQEFAAIKPAE</td>\n\t                    \n\t                    <td>leu</td>\n\t                    \n\t                    <td>12</td>\n\t                    \n\t                    <td>Bacillus atrophaeus ATCC 49822-2 contig00009, whol...</td>\n\t                    \n\t                    <td>NZ_AEFW01000030.1.cluster008.gbk</td>\n\t                    \n\t            </tr>\n\t            <tr>\n\t                <td>8643</td>\n\t                \n\t                    <td>glu</td>\n\t                    \n\t                    <td>NEGPAFSAIEPAEK</td>\n\t                    \n\t                    <td>leu</td>\n\t                    \n\t                    <td>14</td>\n\t                    \n\t                    <td>Bacillus velezensis strain CFSAN034340 NODE_13_len...</td>\n\t                    \n\t                    <td>NZ_LYNC01000007.1.cluster001.gbk</td>\n\t                    \n\t            </tr>\n\t            <tr>\n\t                <td>8820</td>\n\t                \n\t                    <td>glu</td>\n\t                    \n\t                    <td>RESKAFAVIEPAE</td>\n\t                    \n\t                    <td>leu</td>\n\t                    \n\t                    <td>13</td>\n\t                    \n\t                    <td>Bacillus subtilis strain SG6, complete genome.</td>\n\t                    \n\t                    <td>NZ_CP009796.1.cluster001.gbk</td>\n\t                    \n\t            </tr>\n\t            <tr>\n\t                <td>8845</td>\n\t                \n\t                    <td>glu</td>\n\t                    \n\t                    <td>NEGPAFSAIEPAEK</td>\n\t                    \n\t                    <td>leu</td>\n\t                    \n\t                    <td>14</td>\n\t                    \n\t                    <td>Bacillus amyloliquefaciens strain 11B91 contig_9, ...</td>\n\t                    \n\t                    <td>NZ_LPUP01000011.1.cluster006.gbk</td>\n\t                    \n\t            </tr>\n\t            <tr>\n\t                <td>9153</td>\n\t                \n\t                    <td>glu</td>\n\t                    \n\t                    <td>RESKAFAVIEPAE</td>\n\t                    \n\t                    <td>leu</td>\n\t                    \n\t                    <td>13</td>\n\t                    \n\t                    <td>Bacillus subtilis strain GXA-28 Contig04, whole ge...</td>\n\t                    \n\t                    <td>NZ_JPNZ01000001.1.cluster005.gbk</td>\n\t                    \n\t            </tr>\n\t            <tr>\n\t                <td>9162</td>\n\t                \n\t                    <td>glu</td>\n\t                    \n\t                    <td>EKSSQVVIPKAPT</td>\n\t                    \n\t                    <td>leu</td>\n\t                    \n\t                    <td>13</td>\n\t                    \n\t                    <td>Bacillus pumilus BA06 BA_1125, whole genome shotgu...</td>\n\t                    \n\t                    <td>NZ_AMDH01000001.1.cluster001.gbk</td>\n\t                    \n\t            </tr>\n\t            <tr>\n\t                <td>9196</td>\n\t                \n\t                    <td>glu</td>\n\t                    \n\t                    <td>RESKAFAVIEPAE</td>\n\t                    \n\t                    <td>leu</td>\n\t                    \n\t                    <td>13</td>\n\t                    \n\t                    <td>Bacillus subtilis BSn5, complete genome.</td>\n\t                    \n\t                    <td>NC_014976.1.cluster003.gbk</td>\n\t                    \n\t            </tr>\n\t            <tr>\n\t                <td>9403</td>\n\t                \n\t                    <td>glu</td>\n\t                    \n\t                    <td>RESREFSVIEPAE</td>\n\t                    \n\t                    <td>leu</td>\n\t                    \n\t                    <td>13</td>\n\t                    \n\t                    <td>Bacillus subtilis strain B4069 NODE_78, whole geno...</td>\n\t                    \n\t                    <td>NZ_JXHL01000001.1.cluster002.gbk</td>\n\t                    \n\t            </tr>\n\t            <tr>\n\t                <td>9632</td>\n\t                \n\t                    <td>glu</td>\n\t                    \n\t                    <td>RESRAFSVIEPAE</td>\n\t                    \n\t                    <td>leu</td>\n\t                    \n\t                    <td>13</td>\n\t                    \n\t                    <td>Bacillus sp. JS, complete genome.</td>\n\t                    \n\t                    <td>NC_017743.1.cluster001.gbk</td>\n\t                    \n\t            </tr>\n\t            <tr>\n\t                <td>9666</td>\n\t                \n\t                    <td>glu</td>\n\t                    \n\t                    <td>RESKAFAVIEPAE</td>\n\t                    \n\t                    <td>leu</td>\n\t                    \n\t                    <td>13</td>\n\t                    \n\t                    <td>Bacillus subtilis strain BS38, complete genome.</td>\n\t                    \n\t                    <td>NZ_CP017314.1.cluster001.gbk</td>\n\t                    \n\t            </tr>\n\t            <tr>\n\t                <td>9815</td>\n\t                \n\t                    <td>glu</td>\n\t                    \n\t                    <td>EKSSQVVIPKAPT</td>\n\t                    \n\t                    <td>leu</td>\n\t                    \n\t                    <td>13</td>\n\t                    \n\t                    <td>Bacillus stratosphericus LAMA 585 Contig15, whole ...</td>\n\t                    \n\t                    <td>NZ_APAS01000019.1.cluster001.gbk</td>\n\t                    \n\t            </tr>\n\t            <tr>\n\t                <td>9869</td>\n\t                \n\t                    <td>glu</td>\n\t                    \n\t                    <td>PENITAPVSNDAPVPVPI</td>\n\t                    \n\t                    <td>leu</td>\n\t                    \n\t                    <td>18</td>\n\t                    \n\t                    <td>Chitinophaga pinensis DSM 2588, complete genome.</td>\n\t                    \n\t                    <td>NC_013132.1.cluster002.gbk</td>\n\t                    \n\t            </tr>\n\t            <tr>\n\t                <td>10078</td>\n\t                \n\t                    <td>glu</td>\n\t                    \n\t                    <td>NEGPAFSAIEPAEK</td>\n\t                    \n\t                    <td>leu</td>\n\t                    \n\t                    <td>14</td>\n\t                    \n\t                    <td>Bacillus velezensis strain SRCM100731 contig00034,...</td>\n\t                    \n\t                    <td>NZ_LYUF01000001.1.cluster004.gbk</td>\n\t                    \n\t            </tr>\n\t            <tr>\n\t                <td>10481</td>\n\t                \n\t                    <td>glu</td>\n\t                    \n\t                    <td>RESRAFSVIEPAE</td>\n\t                    \n\t                    <td>leu</td>\n\t                    \n\t                    <td>13</td>\n\t                    \n\t                    <td>Bacillus sp. A053 Contig5, whole genome shotgun se...</td>\n\t                    \n\t                    <td>NZ_JXAJ01000001.1.cluster005.gbk</td>\n\t                    \n\t            </tr>\n\t            <tr>\n\t                <td>10483</td>\n\t                \n\t                    <td>glu</td>\n\t                    \n\t                    <td>RESKAFAVIEPAE</td>\n\t                    \n\t                    <td>leu</td>\n\t                    \n\t                    <td>13</td>\n\t                    \n\t                    <td>Bacillus subtilis strain E72 scaffold8, whole geno...</td>\n\t                    \n\t                    <td>NZ_JNCN01000021.1.cluster004.gbk</td>\n\t                    \n\t            </tr>\n\t            <tr>\n\t                <td>10638</td>\n\t                \n\t                    <td>glu</td>\n\t                    \n\t                    <td>NEGPAFNAIEPAEK</td>\n\t                    \n\t                    <td>leu</td>\n\t                    \n\t                    <td>14</td>\n\t                    \n\t                    <td>Bacillus velezensis strain NRRL B-4257 contig_2, w...</td>\n\t                    \n\t                    <td>NZ_LLZB01000001.1.cluster004.gbk</td>\n\t                    \n\t            </tr>\n\t            <tr>\n\t                <td>11285</td>\n\t                \n\t                    <td>glu</td>\n\t                    \n\t                    <td>NEGSAFRAIEPAEK</td>\n\t                    \n\t                    <td>leu</td>\n\t                    \n\t                    <td>14</td>\n\t                    \n\t                    <td>Bacillus velezensis strain RC218 RC218_contig_1, w...</td>\n\t                    \n\t                    <td>NZ_LQCL01000001.1.cluster001.gbk</td>\n\t                    \n\t            </tr>\n\t            <tr>\n\t                <td>11463</td>\n\t                \n\t                    <td>glu</td>\n\t                    \n\t                    <td>NEGPAFSTIEPAEK</td>\n\t                    \n\t                    <td>leu</td>\n\t                    \n\t                    <td>14</td>\n\t                    \n\t                    <td>Bacillus velezensis strain AP183 Contig41, whole g...</td>\n\t                    \n\t                    <td>NZ_JXAM01000017.1.cluster005.gbk</td>\n\t                    \n\t            </tr>\n\t            <tr>\n\t                <td>11477</td>\n\t                \n\t                    <td>glu</td>\n\t                    \n\t                    <td>RESREFSVIEPAE</td>\n\t                    \n\t                    <td>leu</td>\n\t                    \n\t                    <td>13</td>\n\t                    \n\t                    <td>Bacillus subtilis strain B4068 NODE_40, whole geno...</td>\n\t                    \n\t                    <td>NZ_JXHK01000001.1.cluster004.gbk</td>\n\t                    \n\t            </tr>\n\t            <tr>\n\t                <td>11479</td>\n\t                \n\t                    <td>glu</td>\n\t                    \n\t                    <td>RESRAFTAIEPAE</td>\n\t                    \n\t                    <td>leu</td>\n\t                    \n\t                    <td>13</td>\n\t                    \n\t                    <td>Bacillus vallismortis DV1-F-3 genomic scaffold scf...</td>\n\t                    \n\t                    <td>NZ_JH600197.1.cluster003.gbk</td>\n\t                    \n\t            </tr>\n\t            <tr>\n\t                <td>11485</td>\n\t                \n\t                    <td>glu</td>\n\t                    \n\t                    <td>NEGPAFSAIEPAEK</td>\n\t                    \n\t                    <td>leu</td>\n\t                    \n\t                    <td>14</td>\n\t                    \n\t                    <td>Bacillus sp. 5B6 5B6, whole genome shotgun sequenc...</td>\n\t                    \n\t                    <td>NZ_AJST01000001.1.cluster001.gbk</td>\n\t                    \n\t            </tr>\n\t            <tr>\n\t                <td>11723</td>\n\t                \n\t                    <td>glu</td>\n\t                    \n\t                    <td>EKSSQVVIPKAPT</td>\n\t                    \n\t                    <td>leu</td>\n\t                    \n\t                    <td>13</td>\n\t                    \n\t                    <td>Bacillus altitudinis strain DSM 26896 contig7, who...</td>\n\t                    \n\t                    <td>NZ_JXAI01000001.1.cluster004.gbk</td>\n\t                    \n\t            </tr>\n\t            <tr>\n\t                <td>11818</td>\n\t                \n\t                    <td>glu</td>\n\t                    \n\t                    <td>EKSTATEIPKAPA</td>\n\t                    \n\t                    <td>leu</td>\n\t                    \n\t                    <td>13</td>\n\t                    \n\t                    <td>Bacillus sp. WP8, complete genome.</td>\n\t                    \n\t                    <td>NZ_CP010075.1.cluster001.gbk</td>\n\t                    \n\t            </tr>\n\t            <tr>\n\t                <td>11861</td>\n\t                \n\t                    <td>glu</td>\n\t                    \n\t                    <td>RESKAFAVIEPAE</td>\n\t                    \n\t                    <td>leu</td>\n\t                    \n\t                    <td>13</td>\n\t                    \n\t                    <td>Bacillus subtilis subsp. subtilis str. AUSI98 geno...</td>\n\t                    \n\t                    <td>NZ_JH600074.1.cluster001.gbk</td>\n\t                    \n\t            </tr>\n\t            <tr>\n\t                <td>12133</td>\n\t                \n\t                    <td>glu</td>\n\t                    \n\t                    <td>ETSPETVIPKAPA</td>\n\t                    \n\t                    <td>leu</td>\n\t                    \n\t                    <td>13</td>\n\t                    \n\t                    <td>Bacillus pumilus strain Bonn contig00005, whole ge...</td>\n\t                    \n\t                    <td>NZ_LNCN01000001.1.cluster002.gbk</td>\n\t                    \n\t            </tr>\n\t            <tr>\n\t                <td>12763</td>\n\t                \n\t                    <td>glu</td>\n\t                    \n\t                    <td>NEGPAFSTIEPAEK</td>\n\t                    \n\t                    <td>leu</td>\n\t                    \n\t                    <td>14</td>\n\t                    \n\t                    <td>Bacillus amyloliquefaciens subsp. plantarum TrigoC...</td>\n\t                    \n\t                    <td>NZ_CP007244.1.cluster001.gbk</td>\n\t                    \n\t            </tr>\n\t            <tr>\n\t                <td>12772</td>\n\t                \n\t                    <td>glu</td>\n\t                    \n\t                    <td>NEGPAFRAIEPAEK</td>\n\t                    \n\t                    <td>leu</td>\n\t                    \n\t                    <td>14</td>\n\t                    \n\t                    <td>Bacillus amyloliquefaciens strain Y14, complete ge...</td>\n\t                    \n\t                    <td>NZ_CP017953.1.cluster001.gbk</td>\n\t                    \n\t            </tr>\n\t            <tr>\n\t                <td>12810</td>\n\t                \n\t                    <td>glu</td>\n\t                    \n\t                    <td>EKSSQVVIPKAPT</td>\n\t                    \n\t                    <td>leu</td>\n\t                    \n\t                    <td>13</td>\n\t                    \n\t                    <td>Bacillus pumilus strain ku-bf1 genome.</td>\n\t                    \n\t                    <td>NZ_CP014165.1.cluster001.gbk</td>\n\t                    \n\t            </tr>\n\t            <tr>\n\t                <td>13605</td>\n\t                \n\t                    <td>glu</td>\n\t                    \n\t                    <td>NEGPAFSAIEPAEK</td>\n\t                    \n\t                    <td>leu</td>\n\t                    \n\t                    <td>14</td>\n\t                    \n\t                    <td>Bacillus amyloliquefaciens subsp. plantarum UCMB50...</td>\n\t                    \n\t                    <td>NC_022075.1.cluster002.gbk</td>\n\t                    \n\t            </tr>\n\t            <tr>\n\t                <td>13709</td>\n\t                \n\t                    <td>glu</td>\n\t                    \n\t                    <td>EKSSQVVIPKAPT</td>\n\t                    \n\t                    <td>leu</td>\n\t                    \n\t                    <td>13</td>\n\t                    \n\t                    <td>Bacillus stratosphericus strain LK23, whole genome...</td>\n\t                    \n\t                    <td>NZ_LDWL01000001.1.cluster001.gbk</td>\n\t                    \n\t            </tr>\n\t            <tr>\n\t                <td>13840</td>\n\t                \n\t                    <td>glu</td>\n\t                    \n\t                    <td>EKSSQVVIPKAPT</td>\n\t                    \n\t                    <td>leu</td>\n\t                    \n\t                    <td>13</td>\n\t                    \n\t                    <td>Bacillus altitudinis 41KF2b contig6, whole genome ...</td>\n\t                    \n\t                    <td>NZ_ASJC01000001.1.cluster001.gbk</td>\n\t                    \n\t            </tr>\n\t            <tr>\n\t                <td>14020</td>\n\t                \n\t                    <td>glu</td>\n\t                    \n\t                    <td>EKSSQVVIPKAPT</td>\n\t                    \n\t                    <td>leu</td>\n\t                    \n\t                    <td>13</td>\n\t                    \n\t                    <td>Bacillus pumilus INR7 contig18, whole genome shotg...</td>\n\t                    \n\t                    <td>NZ_AYTK01000001.1.cluster002.gbk</td>\n\t                    \n\t            </tr>\n\t            <tr>\n\t                <td>14202</td>\n\t                \n\t                    <td>glu</td>\n\t                    \n\t                    <td>NEGPAFSAIEPAEK</td>\n\t                    \n\t                    <td>leu</td>\n\t                    \n\t                    <td>14</td>\n\t                    \n\t                    <td>Bacillus amyloliquefaciens EBL11 NODE_8, whole gen...</td>\n\t                    \n\t                    <td>NZ_JCOC01000001.1.cluster006.gbk</td>\n\t                    \n\t            </tr>\n\t            <tr>\n\t                <td>14275</td>\n\t                \n\t                    <td>glu</td>\n\t                    \n\t                    <td>NEGPAFSAIEPAEK</td>\n\t                    \n\t                    <td>leu</td>\n\t                    \n\t                    <td>14</td>\n\t                    \n\t                    <td>Bacillus velezensis strain KACC 13105 contig_7, wh...</td>\n\t                    \n\t                    <td>NZ_JTKJ02000001.1.cluster006.gbk</td>\n\t                    \n\t            </tr>\n\t            <tr>\n\t                <td>14307</td>\n\t                \n\t                    <td>glu</td>\n\t                    \n\t                    <td>AGRTFAAIEPAE</td>\n\t                    \n\t                    <td>leu</td>\n\t                    \n\t                    <td>12</td>\n\t                    \n\t                    <td>Bacillus malacitensis strain NRRL B-41618 contig_2...</td>\n\t                    \n\t                    <td>NZ_LPVE01000001.1.cluster003.gbk</td>\n\t                    \n\t            </tr>\n\t            <tr>\n\t                <td>14768</td>\n\t                \n\t                    <td>glu</td>\n\t                    \n\t                    <td>RESKAFAVIEPAQ</td>\n\t                    \n\t                    <td>leu</td>\n\t                    \n\t                    <td>13</td>\n\t                    \n\t                    <td>Bacillus subtilis subsp. subtilis RO-NN-1, complet...</td>\n\t                    \n\t                    <td>NC_017195.1.cluster001.gbk</td>\n\t                    \n\t            </tr>\n\t            <tr>\n\t                <td>15169</td>\n\t                \n\t                    <td>glu</td>\n\t                    \n\t                    <td>DYRESRAFSVIEPAE</td>\n\t                    \n\t                    <td>leu</td>\n\t                    \n\t                    <td>15</td>\n\t                    \n\t                    <td>Bacillus subtilis subsp. subtilis strain BSD-2, co...</td>\n\t                    \n\t                    <td>NZ_CP013654.1.cluster004.gbk</td>\n\t                    \n\t            </tr>\n\t            <tr>\n\t                <td>15337</td>\n\t                \n\t                    <td>glu</td>\n\t                    \n\t                    <td>RESREFSVIEPAE</td>\n\t                    \n\t                    <td>leu</td>\n\t                    \n\t                    <td>13</td>\n\t                    \n\t                    <td>Bacillus subtilis strain B4145 NODE_30, whole geno...</td>\n\t                    \n\t                    <td>NZ_JXHQ01000001.1.cluster002.gbk</td>\n\t                    \n\t            </tr>\n\t            <tr>\n\t                <td>15348</td>\n\t                \n\t                    <td>glu</td>\n\t                    \n\t                    <td>NEGPAFSAIEPAEK</td>\n\t                    \n\t                    <td>leu</td>\n\t                    \n\t                    <td>14</td>\n\t                    \n\t                    <td>Bacillus subtilis GB03 contig5, whole genome shotg...</td>\n\t                    \n\t                    <td>NZ_AYTJ01000001.1.cluster001.gbk</td>\n\t                    \n\t            </tr>\n\t            <tr>\n\t                <td>15359</td>\n\t                \n\t                    <td>glu</td>\n\t                    \n\t                    <td>REIREFAAIEPAE</td>\n\t                    \n\t                    <td>leu</td>\n\t                    \n\t                    <td>13</td>\n\t                    \n\t                    <td>Jeotgalibacillus marinus strain DSM 1297 super7, w...</td>\n\t                    \n\t                    <td>NZ_LILA01000011.1.cluster006.gbk</td>\n\t                    \n\t            </tr>\n\t            <tr>\n\t                <td>15370</td>\n\t                \n\t                    <td>glu</td>\n\t                    \n\t                    <td>RESKAFAVIEPAE</td>\n\t                    \n\t                    <td>leu</td>\n\t                    \n\t                    <td>13</td>\n\t                    \n\t                    <td>Bacillus sp. FJAT-14266, complete genome.</td>\n\t                    \n\t                    <td>NZ_CP017072.1.cluster004.gbk</td>\n\t                    \n\t            </tr>\n\t            <tr>\n\t                <td>15460</td>\n\t                \n\t                    <td>glu</td>\n\t                    \n\t                    <td>REIQEFAAIEPAE</td>\n\t                    \n\t                    <td>leu</td>\n\t                    \n\t                    <td>13</td>\n\t                    \n\t                    <td>Bacillus subtilis subsp. spizizenii RFWG4C10 conti...</td>\n\t                    \n\t                    <td>NZ_AJHN01000001.1.cluster001.gbk</td>\n\t                    \n\t            </tr>\n\t            <tr>\n\t                <td>15741</td>\n\t                \n\t                    <td>glu</td>\n\t                    \n\t                    <td>RESKAFAVIEPAE</td>\n\t                    \n\t                    <td>leu</td>\n\t                    \n\t                    <td>13</td>\n\t                    \n\t                    <td>Bacillus sp. YP1, complete genome.</td>\n\t                    \n\t                    <td>NZ_CP010014.1.cluster001.gbk</td>\n\t                    \n\t            </tr>\n\t            <tr>\n\t                <td>15775</td>\n\t                \n\t                    <td>glu</td>\n\t                    \n\t                    <td>NEGPAFSAIEPAEK</td>\n\t                    \n\t                    <td>leu</td>\n\t                    \n\t                    <td>14</td>\n\t                    \n\t                    <td>Bacillus velezensis strain GR4-5 contig8_organism,...</td>\n\t                    \n\t                    <td>NZ_JYGH01000010.1.cluster012.gbk</td>\n\t                    \n\t            </tr>\n\t            <tr>\n\t                <td>16105</td>\n\t                \n\t                    <td>glu</td>\n\t                    \n\t                    <td>EKSTATEIPKAPA</td>\n\t                    \n\t                    <td>leu</td>\n\t                    \n\t                    <td>13</td>\n\t                    \n\t                    <td>Bacillus sp. G1(2015b) Contig1, whole genome shotg...</td>\n\t                    \n\t                    <td>NZ_LKIC01000001.1.cluster001.gbk</td>\n\t                    \n\t            </tr>\n\t            <tr>\n\t                <td>16838</td>\n\t                \n\t                    <td>glu</td>\n\t                    \n\t                    <td>ERSSQVVIPKAPL</td>\n\t                    \n\t                    <td>leu</td>\n\t                    \n\t                    <td>13</td>\n\t                    \n\t                    <td>Bacillus xiamenensis strain VV3, complete genome.</td>\n\t                    \n\t                    <td>NZ_CP017786.1.cluster001.gbk</td>\n\t                    \n\t            </tr>\n\t            <tr>\n\t                <td>16969</td>\n\t                \n\t                    <td>glu</td>\n\t                    \n\t                    <td>RESREFSVIEPAE</td>\n\t                    \n\t                    <td>leu</td>\n\t                    \n\t                    <td>13</td>\n\t                    \n\t                    <td>Bacillus subtilis strain B4073 NODE_124, whole gen...</td>\n\t                    \n\t                    <td>NZ_JXHP01000001.1.cluster002.gbk</td>\n\t                    \n\t            </tr>\n\t            <tr>\n\t                <td>17094</td>\n\t                \n\t                    <td>glu</td>\n\t                    \n\t                    <td>RESRAFSVIEPAE</td>\n\t                    \n\t                    <td>leu</td>\n\t                    \n\t                    <td>13</td>\n\t                    \n\t                    <td>Bacillus subtilis subsp. subtilis str. MP9 Contig9...</td>\n\t                    \n\t                    <td>NZ_APMW01000001.1.cluster005.gbk</td>\n\t                    \n\t            </tr>\n\t            <tr>\n\t                <td>17156</td>\n\t                \n\t                    <td>glu</td>\n\t                    \n\t                    <td>RESKAFAVIEPAE</td>\n\t                    \n\t                    <td>leu</td>\n\t                    \n\t                    <td>13</td>\n\t                    \n\t                    <td>Bacillus subtilis strain WAUSV36 scaffold00001, wh...</td>\n\t                    \n\t                    <td>NZ_LWLQ01000001.1.cluster004.gbk</td>\n\t                    \n\t            </tr>\n\t            <tr>\n\t                <td>17325</td>\n\t                \n\t                    <td>glu</td>\n\t                    \n\t                    <td>EKQEFAAIKPAE</td>\n\t                    \n\t                    <td>leu</td>\n\t                    \n\t                    <td>12</td>\n\t                    \n\t                    <td>Bacillus atrophaeus ATCC 49822-1 contig00021, whol...</td>\n\t                    \n\t                    <td>NZ_AEFV01000031.1.cluster008.gbk</td>\n\t                    \n\t            </tr>\n\t            <tr>\n\t                <td>17428</td>\n\t                \n\t                    <td>glu</td>\n\t                    \n\t                    <td>ETSSETVIPKAPA</td>\n\t                    \n\t                    <td>leu</td>\n\t                    \n\t                    <td>13</td>\n\t                    \n\t                    <td>Bacillus pumilus SAFR-032, complete genome.</td>\n\t                    \n\t                    <td>NC_009848.4.cluster001.gbk</td>\n\t                    \n\t            </tr>\n\t            <tr>\n\t                <td>17992</td>\n\t                \n\t                    <td>glu</td>\n\t                    \n\t                    <td>DRSSETVIPKAPA</td>\n\t                    \n\t                    <td>leu</td>\n\t                    \n\t                    <td>13</td>\n\t                    \n\t                    <td>Bacillus pumilus strain LK32, whole genome shotgun...</td>\n\t                    \n\t                    <td>NZ_LDWT01000001.1.cluster001.gbk</td>\n\t                    \n\t            </tr>\n\t            <tr>\n\t                <td>18213</td>\n\t                \n\t                    <td>glu</td>\n\t                    \n\t                    <td>RESKAFAVIEPAE</td>\n\t                    \n\t                    <td>leu</td>\n\t                    \n\t                    <td>13</td>\n\t                    \n\t                    <td>Bacillus subtilis strain MS1577 BS6, whole genome ...</td>\n\t                    \n\t                    <td>NZ_LFOC01000001.1.cluster006.gbk</td>\n\t                    \n\t            </tr>\n\t            <tr>\n\t                <td>18365</td>\n\t                \n\t                    <td>glu</td>\n\t                    \n\t                    <td>RESKAFAVIEPAE</td>\n\t                    \n\t                    <td>leu</td>\n\t                    \n\t                    <td>13</td>\n\t                    \n\t                    <td>Bacillus subtilis PS216 ctg7180000000337, whole ge...</td>\n\t                    \n\t                    <td>NZ_AQGR01000001.1.cluster004.gbk</td>\n\t                    \n\t            </tr>\n\t            <tr>\n\t                <td>18475</td>\n\t                \n\t                    <td>glu</td>\n\t                    \n\t                    <td>RNEGPAFSTIEPAEK</td>\n\t                    \n\t                    <td>leu</td>\n\t                    \n\t                    <td>15</td>\n\t                    \n\t                    <td>Bacillus amyloliquefaciens TA208, complete genome.</td>\n\t                    \n\t                    <td>NC_017188.1.cluster001.gbk</td>\n\t                    \n\t            </tr>\n\t            <tr>\n\t                <td>18570</td>\n\t                \n\t                    <td>glu</td>\n\t                    \n\t                    <td>RKQGTVFRTIEPAEK</td>\n\t                    \n\t                    <td>leu</td>\n\t                    \n\t                    <td>15</td>\n\t                    \n\t                    <td>Bacillus nakamurai strain NRRL B-41092 Bacillus-sp...</td>\n\t                    \n\t                    <td>NZ_LSBA01000001.1.cluster001.gbk</td>\n\t                    \n\t            </tr>\n\t            <tr>\n\t                <td>18693</td>\n\t                \n\t                    <td>glu</td>\n\t                    \n\t                    <td>NEGPAFRAIEPAEK</td>\n\t                    \n\t                    <td>leu</td>\n\t                    \n\t                    <td>14</td>\n\t                    \n\t                    <td>Bacillus amyloliquefaciens IT-45, complete genome.</td>\n\t                    \n\t                    <td>NC_020272.1.cluster004.gbk</td>\n\t                    \n\t            </tr>\n\t            <tr>\n\t                <td>18748</td>\n\t                \n\t                    <td>glu</td>\n\t                    \n\t                    <td>EKSSQVVIPKAPT</td>\n\t                    \n\t                    <td>leu</td>\n\t                    \n\t                    <td>13</td>\n\t                    \n\t                    <td>Bacillus stratosphericus strain LK5, whole genome ...</td>\n\t                    \n\t                    <td>NZ_LDUH01000001.1.cluster001.gbk</td>\n\t                    \n\t            </tr>\n\t            <tr>\n\t                <td>18784</td>\n\t                \n\t                    <td>glu</td>\n\t                    \n\t                    <td>ERSSETVIPKAPA</td>\n\t                    \n\t                    <td>leu</td>\n\t                    \n\t                    <td>13</td>\n\t                    \n\t                    <td>Bacillus safensis VK contig00005, whole genome sho...</td>\n\t                    \n\t                    <td>NZ_AUPF01000001.1.cluster002.gbk</td>\n\t                    \n\t            </tr>\n\t            <tr>\n\t                <td>18892</td>\n\t                \n\t                    <td>glu</td>\n\t                    \n\t                    <td>EKQEFAAIKPAE</td>\n\t                    \n\t                    <td>leu</td>\n\t                    \n\t                    <td>12</td>\n\t                    \n\t                    <td>Bacillus atrophaeus UCMB-5137 genome.</td>\n\t                    \n\t                    <td>NZ_CP011802.1.cluster005.gbk</td>\n\t                    \n\t            </tr>\n\t            <tr>\n\t                <td>18907</td>\n\t                \n\t                    <td>glu</td>\n\t                    \n\t                    <td>RESKAFAVIEPAE</td>\n\t                    \n\t                    <td>leu</td>\n\t                    \n\t                    <td>13</td>\n\t                    \n\t                    <td>Bacillus sp. F56, whole genome shotgun sequence.</td>\n\t                    \n\t                    <td>NZ_BDFC01000001.1.cluster002.gbk</td>\n\t                    \n\t            </tr>\n\t            <tr>\n\t                <td>19340</td>\n\t                \n\t                    <td>glu</td>\n\t                    \n\t                    <td>RESRAFTAIEPAE</td>\n\t                    \n\t                    <td>leu</td>\n\t                    \n\t                    <td>13</td>\n\t                    \n\t                    <td>Bacillus vallismortis DV1-F-3 genomic scaffold scf...</td>\n\t                    \n\t                    <td>NZ_JH600197.1.cluster005.gbk</td>\n\t                    \n\t            </tr>\n\t            <tr>\n\t                <td>19881</td>\n\t                \n\t                    <td>glu</td>\n\t                    \n\t                    <td>RESRAFAAIEPAE</td>\n\t                    \n\t                    <td>leu</td>\n\t                    \n\t                    <td>13</td>\n\t                    \n\t                    <td>Bacillus sp. MSP13 contig00016, whole genome shotg...</td>\n\t                    \n\t                    <td>NZ_JXAQ01000001.1.cluster003.gbk</td>\n\t                    \n\t            </tr>\n\t            <tr>\n\t                <td>20438</td>\n\t                \n\t                    <td>glu</td>\n\t                    \n\t                    <td>NEGPAFRAIEPAEK</td>\n\t                    \n\t                    <td>leu</td>\n\t                    \n\t                    <td>14</td>\n\t                    \n\t                    <td>Bacillus velezensis strain CFSAN034338 NODE_43_len...</td>\n\t                    \n\t                    <td>NZ_LYNA01000007.1.cluster004.gbk</td>\n\t                    \n\t            </tr>\n\t            <tr>\n\t                <td>20742</td>\n\t                \n\t                    <td>glu</td>\n\t                    \n\t                    <td>RESRAFSVIEPAE</td>\n\t                    \n\t                    <td>leu</td>\n\t                    \n\t                    <td>13</td>\n\t                    \n\t                    <td>Bacillus subtilis strain RE1.3 RE1.3_contig_23, wh...</td>\n\t                    \n\t                    <td>NZ_LWJY01000001.1.cluster001.gbk</td>\n\t                    \n\t            </tr>\n\t            <tr>\n\t                <td>20830</td>\n\t                \n\t                    <td>glu</td>\n\t                    \n\t                    <td>NEGPAFSAIEPAEK</td>\n\t                    \n\t                    <td>leu</td>\n\t                    \n\t                    <td>14</td>\n\t                    \n\t                    <td>Bacillus subtilis strain ATCC 19217, complete geno...</td>\n\t                    \n\t                    <td>NZ_CP009749.1.cluster001.gbk</td>\n\t                    \n\t            </tr>\n\t            <tr>\n\t                <td>20947</td>\n\t                \n\t                    <td>glu</td>\n\t                    \n\t                    <td>RESKAFAVIEPAE</td>\n\t                    \n\t                    <td>leu</td>\n\t                    \n\t                    <td>13</td>\n\t                    \n\t                    <td>Bacillus subtilis QH-1 contig4, whole genome shotg...</td>\n\t                    \n\t                    <td>NZ_AZQS01000001.1.cluster005.gbk</td>\n\t                    \n\t            </tr>\n\t            <tr>\n\t                <td>21604</td>\n\t                \n\t                    <td>glu</td>\n\t                    \n\t                    <td>RESKAFAVIEPAE</td>\n\t                    \n\t                    <td>leu</td>\n\t                    \n\t                    <td>13</td>\n\t                    \n\t                    <td>Bacillus subtilis MB73/2 bacsub.contig.4, whole ge...</td>\n\t                    \n\t                    <td>NZ_AOTY01000001.1.cluster004.gbk</td>\n\t                    \n\t            </tr>\n\t            <tr>\n\t                <td>21754</td>\n\t                \n\t                    <td>glu</td>\n\t                    \n\t                    <td>EKSSQVVIPKAPT</td>\n\t                    \n\t                    <td>leu</td>\n\t                    \n\t                    <td>13</td>\n\t                    \n\t                    <td>Bacillus stratosphericus strain LK31, whole genome...</td>\n\t                    \n\t                    <td>NZ_LDWS01000001.1.cluster001.gbk</td>\n\t                    \n\t            </tr>\n\t            <tr>\n\t                <td>22089</td>\n\t                \n\t                    <td>glu</td>\n\t                    \n\t                    <td>EKSSETVIPKAPA</td>\n\t                    \n\t                    <td>leu</td>\n\t                    \n\t                    <td>13</td>\n\t                    \n\t                    <td>Bacillus safensis FO-36b contig7, whole genome sho...</td>\n\t                    \n\t                    <td>NZ_ASJD01000001.1.cluster001.gbk</td>\n\t                    \n\t            </tr>\n\t            <tr>\n\t                <td>22255</td>\n\t                \n\t                    <td>glu</td>\n\t                    \n\t                    <td>EKSSQVVIPKAPT</td>\n\t                    \n\t                    <td>leu</td>\n\t                    \n\t                    <td>13</td>\n\t                    \n\t                    <td>Bacillus sp. LK10, whole genome shotgun sequence.</td>\n\t                    \n\t                    <td>NZ_LDUQ01000001.1.cluster001.gbk</td>\n\t                    \n\t            </tr>\n\t            <tr>\n\t                <td>22675</td>\n\t                \n\t                    <td>glu</td>\n\t                    \n\t                    <td>RNEGPAFSTIEPAEK</td>\n\t                    \n\t                    <td>leu</td>\n\t                    \n\t                    <td>15</td>\n\t                    \n\t                    <td>Bacillus subtilis strain ATCC 13952, complete geno...</td>\n\t                    \n\t                    <td>NZ_CP009748.1.cluster001.gbk</td>\n\t                    \n\t            </tr>\n\t            <tr>\n\t                <td>22872</td>\n\t                \n\t                    <td>glu</td>\n\t                    \n\t                    <td>RNEGPAFSTIEPAEK</td>\n\t                    \n\t                    <td>leu</td>\n\t                    \n\t                    <td>15</td>\n\t                    \n\t                    <td>Bacillus amyloliquefaciens LL3, complete genome.</td>\n\t                    \n\t                    <td>NC_017190.1.cluster001.gbk</td>\n\t                    \n\t            </tr>\n\t            <tr>\n\t                <td>22936</td>\n\t                \n\t                    <td>glu</td>\n\t                    \n\t                    <td>RESREFSVIEPAE</td>\n\t                    \n\t                    <td>leu</td>\n\t                    \n\t                    <td>13</td>\n\t                    \n\t                    <td>Bacillus subtilis S1-4 S1-4_19, whole genome shotg...</td>\n\t                    \n\t                    <td>NZ_ANIP01000001.1.cluster002.gbk</td>\n\t                    \n\t            </tr>\n\t            <tr>\n\t                <td>22958</td>\n\t                \n\t                    <td>glu</td>\n\t                    \n\t                    <td>REIQEFAAIEPAE</td>\n\t                    \n\t                    <td>leu</td>\n\t                    \n\t                    <td>13</td>\n\t                    \n\t                    <td>Bacillus subtilis subsp. spizizenii strain NRS 231...</td>\n\t                    \n\t                    <td>NZ_CP010434.1.cluster001.gbk</td>\n\t                    \n\t            </tr>\n\t            <tr>\n\t                <td>22998</td>\n\t                \n\t                    <td>glu</td>\n\t                    \n\t                    <td>EKQEFAAIKPAE</td>\n\t                    \n\t                    <td>leu</td>\n\t                    \n\t                    <td>12</td>\n\t                    \n\t                    <td>Bacillus atrophaeus str. Dugway contig00024, whole...</td>\n\t                    \n\t                    <td>NZ_AEFO01000053.1.cluster007.gbk</td>\n\t                    \n\t            </tr>\n\t            <tr>\n\t                <td>23058</td>\n\t                \n\t                    <td>glu</td>\n\t                    \n\t                    <td>EKQEFAAIKPAE</td>\n\t                    \n\t                    <td>leu</td>\n\t                    \n\t                    <td>12</td>\n\t                    \n\t                    <td>Bacillus subtilis subsp. niger strain PCI 246 geno...</td>\n\t                    \n\t                    <td>NZ_KN049968.1.cluster005.gbk</td>\n\t                    \n\t            </tr>\n\t            <tr>\n\t                <td>23258</td>\n\t                \n\t                    <td>glu</td>\n\t                    \n\t                    <td>DRSIQAPPNLIPARATRITPDMLPLVALTQTQIDMLAVQVEGGAAN</td>\n\t                    \n\t                    <td>leu</td>\n\t                    \n\t                    <td>46</td>\n\t                    \n\t                    <td>Burkholderia pseudomallei strain BFD scaffold1, wh...</td>\n\t                    \n\t                    <td>NZ_KN150941.1.cluster007.gbk</td>\n\t                    \n\t            </tr>\n\t            <tr>\n\t                <td>23285</td>\n\t                \n\t                    <td>glu</td>\n\t                    \n\t                    <td>DYRESRAFSVIEPAE</td>\n\t                    \n\t                    <td>leu</td>\n\t                    \n\t                    <td>15</td>\n\t                    \n\t                    <td>Bacillus subtilis subsp. subtilis str. BAB-1, comp...</td>\n\t                    \n\t                    <td>NC_020832.1.cluster001.gbk</td>\n\t                    \n\t            </tr>\n\t            <tr>\n\t                <td>23508</td>\n\t                \n\t                    <td>glu</td>\n\t                    \n\t                    <td>NEGPAFSAIEPAEK</td>\n\t                    \n\t                    <td>leu</td>\n\t                    \n\t                    <td>14</td>\n\t                    \n\t                    <td>Bacillus amyloliquefaciens strain LPL-K103 contig_...</td>\n\t                    \n\t                    <td>NZ_JXAT01000001.1.cluster005.gbk</td>\n\t                    \n\t            </tr>\n\t            <tr>\n\t                <td>23739</td>\n\t                \n\t                    <td>glu</td>\n\t                    \n\t                    <td>NEGPAFRAIEPAEK</td>\n\t                    \n\t                    <td>leu</td>\n\t                    \n\t                    <td>14</td>\n\t                    \n\t                    <td>Bacillus amyloliquefaciens strain RHNK22 Scaffold4...</td>\n\t                    \n\t                    <td>NZ_LMAG01000001.1.cluster010.gbk</td>\n\t                    \n\t            </tr>\n\t            <tr>\n\t                <td>23919</td>\n\t                \n\t                    <td>glu</td>\n\t                    \n\t                    <td>NEGPAFRAIEPAEK</td>\n\t                    \n\t                    <td>leu</td>\n\t                    \n\t                    <td>14</td>\n\t                    \n\t                    <td>Bacillus amyloliquefaciens UASWS BA1 Contig008, wh...</td>\n\t                    \n\t                    <td>NZ_AWQY01000001.1.cluster006.gbk</td>\n\t                    \n\t            </tr>\n\t            <tr>\n\t                <td>23987</td>\n\t                \n\t                    <td>glu</td>\n\t                    \n\t                    <td>RESRAFSVIEPAE</td>\n\t                    \n\t                    <td>leu</td>\n\t                    \n\t                    <td>13</td>\n\t                    \n\t                    <td>Bacillus subtilis strain B4146 NODE_61, whole geno...</td>\n\t                    \n\t                    <td>NZ_JXHR01000001.1.cluster003.gbk</td>\n\t                    \n\t            </tr>\n\t            <tr>\n\t                <td>24800</td>\n\t                \n\t                    <td>glu</td>\n\t                    \n\t                    <td>RESREFSVIEPAE</td>\n\t                    \n\t                    <td>leu</td>\n\t                    \n\t                    <td>13</td>\n\t                    \n\t                    <td>Bacillus subtilis strain B4072 NODE_130, whole gen...</td>\n\t                    \n\t                    <td>NZ_JXHO01000001.1.cluster001.gbk</td>\n\t                    \n\t            </tr>\n\t            <tr>\n\t                <td>24855</td>\n\t                \n\t                    <td>glu</td>\n\t                    \n\t                    <td>EKSSQVVIPKAPT</td>\n\t                    \n\t                    <td>leu</td>\n\t                    \n\t                    <td>13</td>\n\t                    \n\t                    <td>Bacillus aerophilus strain C772 NODE_4, whole geno...</td>\n\t                    \n\t                    <td>NZ_JXRO01000012.1.cluster002.gbk</td>\n\t                    \n\t            </tr>\n\t            <tr>\n\t                <td>25192</td>\n\t                \n\t                    <td>glu</td>\n\t                    \n\t                    <td>ADKKEYITIKKAEEKD</td>\n\t                    \n\t                    <td>leu</td>\n\t                    \n\t                    <td>16</td>\n\t                    \n\t                    <td>Clostridium sp. DL-VIII chromosome, whole genome s...</td>\n\t                    \n\t                    <td>NZ_CM001240.1.cluster001.gbk</td>\n\t                    \n\t            </tr>\n\t            <tr>\n\t                <td>25226</td>\n\t                \n\t                    <td>glu</td>\n\t                    \n\t                    <td>NEGPAFSAIEPAEK</td>\n\t                    \n\t                    <td>leu</td>\n\t                    \n\t                    <td>14</td>\n\t                    \n\t                    <td>Bacillus velezensis strain NBIF-003 Scaffold5, who...</td>\n\t                    \n\t                    <td>NZ_LJJY01000001.1.cluster005.gbk</td>\n\t                    \n\t            </tr>\n\t            <tr>\n\t                <td>25237</td>\n\t                \n\t                    <td>glu</td>\n\t                    \n\t                    <td>RESREFSVIEPAE</td>\n\t                    \n\t                    <td>leu</td>\n\t                    \n\t                    <td>13</td>\n\t                    \n\t                    <td>Bacillus subtilis strain B4070 NODE_47, whole geno...</td>\n\t                    \n\t                    <td>NZ_JXHM01000001.1.cluster005.gbk</td>\n\t                    \n\t            </tr>\n\t            <tr>\n\t                <td>25246</td>\n\t                \n\t                    <td>glu</td>\n\t                    \n\t                    <td>NEGPAFSAIEPAEK</td>\n\t                    \n\t                    <td>leu</td>\n\t                    \n\t                    <td>14</td>\n\t                    \n\t                    <td>Bacillus sp. 916 Contig307, whole genome shotgun s...</td>\n\t                    \n\t                    <td>NZ_AFSU01000002.1.cluster007.gbk</td>\n\t                    \n\t            </tr>\n\t            <tr>\n\t                <td>25506</td>\n\t                \n\t                    <td>glu</td>\n\t                    \n\t                    <td>RESKAFAVIEPAE</td>\n\t                    \n\t                    <td>leu</td>\n\t                    \n\t                    <td>13</td>\n\t                    \n\t                    <td>Bacillus subtilis QB928, complete genome.</td>\n\t                    \n\t                    <td>NC_018520.1.cluster001.gbk</td>\n\t                    \n\t            </tr>\n\t            <tr>\n\t                <td>25562</td>\n\t                \n\t                    <td>glu</td>\n\t                    \n\t                    <td>RESRAFSVIEPAE</td>\n\t                    \n\t                    <td>leu</td>\n\t                    \n\t                    <td>13</td>\n\t                    \n\t                    <td>Bacillus subtilis strain RE1.1 RE1.1_contig_62, wh...</td>\n\t                    \n\t                    <td>NZ_LWJX01000001.1.cluster007.gbk</td>\n\t                    \n\t            </tr>\n\t            <tr>\n\t                <td>25794</td>\n\t                \n\t                    <td>glu</td>\n\t                    \n\t                    <td>NEGPAFRAIEPAEK</td>\n\t                    \n\t                    <td>leu</td>\n\t                    \n\t                    <td>14</td>\n\t                    \n\t                    <td>Bacillus subtilis strain B-1 genome.</td>\n\t                    \n\t                    <td>NZ_CP009684.1.cluster005.gbk</td>\n\t                    \n\t            </tr>\n\t            <tr>\n\t                <td>25903</td>\n\t                \n\t                    <td>glu</td>\n\t                    \n\t                    <td>EKSSQVVIPKAPT</td>\n\t                    \n\t                    <td>leu</td>\n\t                    \n\t                    <td>13</td>\n\t                    \n\t                    <td>Bacillus stratosphericus strain LK18, whole genome...</td>\n\t                    \n\t                    <td>NZ_LDWI01000001.1.cluster002.gbk</td>\n\t                    \n\t            </tr>\n\t            <tr>\n\t                <td>26079</td>\n\t                \n\t                    <td>glu</td>\n\t                    \n\t                    <td>EKSSETEIPKAPA</td>\n\t                    \n\t                    <td>leu</td>\n\t                    \n\t                    <td>13</td>\n\t                    \n\t                    <td>Bacillus pumilus strain 15.1 Contig_53, whole geno...</td>\n\t                    \n\t                    <td>NZ_LBDK01000001.1.cluster004.gbk</td>\n\t                    \n\t            </tr>\n\t            <tr>\n\t                <td>26197</td>\n\t                \n\t                    <td>glu</td>\n\t                    \n\t                    <td>REIQEFAAIEPAE</td>\n\t                    \n\t                    <td>leu</td>\n\t                    \n\t                    <td>13</td>\n\t                    \n\t                    <td>Bacillus subtilis strain T30, complete genome.</td>\n\t                    \n\t                    <td>NZ_CP011051.1.cluster002.gbk</td>\n\t                    \n\t            </tr>\n\t            <tr>\n\t                <td>26244</td>\n\t                \n\t                    <td>glu</td>\n\t                    \n\t                    <td>NEGPAFSAIEPAEK</td>\n\t                    \n\t                    <td>leu</td>\n\t                    \n\t                    <td>14</td>\n\t                    \n\t                    <td>Bacillus amyloliquefaciens HB-26 contig10, whole g...</td>\n\t                    \n\t                    <td>NZ_AUWK01000001.1.cluster002.gbk</td>\n\t                    \n\t            </tr>\n\t            <tr>\n\t                <td>26461</td>\n\t                \n\t                    <td>glu</td>\n\t                    \n\t                    <td>REIQEFAAIEPAE</td>\n\t                    \n\t                    <td>leu</td>\n\t                    \n\t                    <td>13</td>\n\t                    \n\t                    <td>Bacillus subtilis subsp. spizizenii RFWG5B15 conti...</td>\n\t                    \n\t                    <td>NZ_AJHO01000001.1.cluster001.gbk</td>\n\t                    \n\t            </tr>\n\t            <tr>\n\t                <td>26658</td>\n\t                \n\t                    <td>glu</td>\n\t                    \n\t                    <td>EKSSQVVIPKAPT</td>\n\t                    \n\t                    <td>leu</td>\n\t                    \n\t                    <td>13</td>\n\t                    \n\t                    <td>Bacillus pumilus strain NJ-M2, complete genome.</td>\n\t                    \n\t                    <td>NZ_CP012329.1.cluster001.gbk</td>\n\t                    \n\t            </tr>\n\t            <tr>\n\t                <td>26798</td>\n\t                \n\t                    <td>glu</td>\n\t                    \n\t                    <td>ETSSETVIPKAPA</td>\n\t                    \n\t                    <td>leu</td>\n\t                    \n\t                    <td>13</td>\n\t                    \n\t                    <td>Bacillus pumilus ATCC 7061 BAT.Contig112, whole ge...</td>\n\t                    \n\t                    <td>NZ_ABRX01000016.1.cluster003.gbk</td>\n\t                    \n\t            </tr>\n\t            <tr>\n\t                <td>27045</td>\n\t                \n\t                    <td>glu</td>\n\t                    \n\t                    <td>EKQEFAAIKPAE</td>\n\t                    \n\t                    <td>leu</td>\n\t                    \n\t                    <td>12</td>\n\t                    \n\t                    <td>Bacillus atrophaeus 1013-1 contig00006, whole geno...</td>\n\t                    \n\t                    <td>NZ_AEFS01000028.1.cluster011.gbk</td>\n\t                    \n\t            </tr>\n\t            <tr>\n\t                <td>27203</td>\n\t                \n\t                    <td>glu</td>\n\t                    \n\t                    <td>NEGPAFNAIEPAEK</td>\n\t                    \n\t                    <td>leu</td>\n\t                    \n\t                    <td>14</td>\n\t                    \n\t                    <td>Bacillus velezensis strain NRRL B-41580 contig_1, ...</td>\n\t                    \n\t                    <td>NZ_LLZC01000001.1.cluster001.gbk</td>\n\t                    \n\t            </tr>\n\t            <tr>\n\t                <td>27256</td>\n\t                \n\t                    <td>glu</td>\n\t                    \n\t                    <td>NEGPAFSAIEPAEK</td>\n\t                    \n\t                    <td>leu</td>\n\t                    \n\t                    <td>14</td>\n\t                    \n\t                    <td>Bacillus amyloliquefaciens subsp. plantarum NAU-B3...</td>\n\t                    \n\t                    <td>NC_022530.1.cluster001.gbk</td>\n\t                    \n\t            </tr>\n\t            <tr>\n\t                <td>27293</td>\n\t                \n\t                    <td>glu</td>\n\t                    \n\t                    <td>NEGPAFSAIEPAEK</td>\n\t                    \n\t                    <td>leu</td>\n\t                    \n\t                    <td>14</td>\n\t                    \n\t                    <td>Bacillus methylotrophicus strain JS25R, complete g...</td>\n\t                    \n\t                    <td>NZ_CP009679.1.cluster001.gbk</td>\n\t                    \n\t            </tr>\n\t            <tr>\n\t                <td>27403</td>\n\t                \n\t                    <td>glu</td>\n\t                    \n\t                    <td>EKQEFAAIKPAE</td>\n\t                    \n\t                    <td>leu</td>\n\t                    \n\t                    <td>12</td>\n\t                    \n\t                    <td>Bacillus atrophaeus subsp. globigii strain BSS gen...</td>\n\t                    \n\t                    <td>NZ_CP007640.1.cluster006.gbk</td>\n\t                    \n\t            </tr>\n\t            <tr>\n\t                <td>27417</td>\n\t                \n\t                    <td>glu</td>\n\t                    \n\t                    <td>RESKAFAVIEPAE</td>\n\t                    \n\t                    <td>leu</td>\n\t                    \n\t                    <td>13</td>\n\t                    \n\t                    <td>Bacillus subtilis subsp. natto BEST195 DNA, comple...</td>\n\t                    \n\t                    <td>NC_017196.2.cluster001.gbk</td>\n\t                    \n\t            </tr>\n\t            <tr>\n\t                <td>28452</td>\n\t                \n\t                    <td>glu</td>\n\t                    \n\t                    <td>RESKAFAVIEPAE</td>\n\t                    \n\t                    <td>leu</td>\n\t                    \n\t                    <td>13</td>\n\t                    \n\t                    <td>Bacillus sp. CMAA 1185 Cont2, whole genome shotgun...</td>\n\t                    \n\t                    <td>NZ_LAKC01000001.1.cluster002.gbk</td>\n\t                    \n\t            </tr>\n\t            <tr>\n\t                <td>28474</td>\n\t                \n\t                    <td>glu</td>\n\t                    \n\t                    <td>RESKAFAVIEPAE</td>\n\t                    \n\t                    <td>leu</td>\n\t                    \n\t                    <td>13</td>\n\t                    \n\t                    <td>Bacillus subtilis strain 2014-3557 contig000006, w...</td>\n\t                    \n\t                    <td>NZ_JYFL01000001.1.cluster004.gbk</td>\n\t                    \n\t            </tr>\n\t            <tr>\n\t                <td>28606</td>\n\t                \n\t                    <td>glu</td>\n\t                    \n\t                    <td>RNEGPAFSTIEPAEK</td>\n\t                    \n\t                    <td>leu</td>\n\t                    \n\t                    <td>15</td>\n\t                    \n\t                    <td>Bacillus amyloliquefaciens DSM7 complete genome.</td>\n\t                    \n\t                    <td>NC_014551.1.cluster001.gbk</td>\n\t                    \n\t            </tr>\n\t            <tr>\n\t                <td>28781</td>\n\t                \n\t                    <td>glu</td>\n\t                    \n\t                    <td>RESKAFAVIEPAE</td>\n\t                    \n\t                    <td>leu</td>\n\t                    \n\t                    <td>13</td>\n\t                    \n\t                    <td>Bacillus subtilis subsp. subtilis 6051-HGW, comple...</td>\n\t                    \n\t                    <td>NC_020507.1.cluster001.gbk</td>\n\t                    \n\t            </tr>\n\t            <tr>\n\t                <td>29436</td>\n\t                \n\t                    <td>glu</td>\n\t                    \n\t                    <td>RESREFSVIEPAE</td>\n\t                    \n\t                    <td>leu</td>\n\t                    \n\t                    <td>13</td>\n\t                    \n\t                    <td>Bacillus subtilis strain B4071 NODE_126, whole gen...</td>\n\t                    \n\t                    <td>NZ_JXHN01000001.1.cluster001.gbk</td>\n\t                    \n\t            </tr>\n\t            <tr>\n\t                <td>29708</td>\n\t                \n\t                    <td>glu</td>\n\t                    \n\t                    <td>NEGPAFSAIEPAEK</td>\n\t                    \n\t                    <td>leu</td>\n\t                    \n\t                    <td>14</td>\n\t                    \n\t                    <td>Bacillus velezensis strain 9912D, complete genome.</td>\n\t                    \n\t                    <td>NZ_CP017775.1.cluster001.gbk</td>\n\t                    \n\t            </tr>\n\t            <tr>\n\t                <td>29749</td>\n\t                \n\t                    <td>glu</td>\n\t                    \n\t                    <td>RKQGTAFRTIEPAEK</td>\n\t                    \n\t                    <td>leu</td>\n\t                    \n\t                    <td>15</td>\n\t                    \n\t                    <td>Bacillus nakamurai strain NRRL B-41091 Bacillus-sp...</td>\n\t                    \n\t                    <td>NZ_LSAZ01000001.1.cluster002.gbk</td>\n\t                    \n\t            </tr>\n\t            <tr>\n\t                <td>29864</td>\n\t                \n\t                    <td>glu</td>\n\t                    \n\t                    <td>EKQEFAAIKPAE</td>\n\t                    \n\t                    <td>leu</td>\n\t                    \n\t                    <td>12</td>\n\t                    \n\t                    <td>Bacillus atrophaeus ATCC 9372-1 contig00016, whole...</td>\n\t                    \n\t                    <td>NZ_AEFM01000028.1.cluster006.gbk</td>\n\t                    \n\t            </tr>\n\t            <tr>\n\t                <td>30015</td>\n\t                \n\t                    <td>glu</td>\n\t                    \n\t                    <td>REIQEFAAIEPAE</td>\n\t                    \n\t                    <td>leu</td>\n\t                    \n\t                    <td>13</td>\n\t                    \n\t                    <td>Bacillus subtilis subsp. spizizenii RFWG1A4 contig...</td>\n\t                    \n\t                    <td>NZ_AJHM01000001.1.cluster001.gbk</td>\n\t                    \n\t            </tr>\n\t            <tr>\n\t                <td>30196</td>\n\t                \n\t                    <td>glu</td>\n\t                    \n\t                    <td>EGRTFAAIEPAE</td>\n\t                    \n\t                    <td>leu</td>\n\t                    \n\t                    <td>12</td>\n\t                    \n\t                    <td>Bacillus axarquiensis strain NRRL B-41617 contig_5...</td>\n\t                    \n\t                    <td>NZ_LPVD01000001.1.cluster005.gbk</td>\n\t                    \n\t            </tr>\n\t            <tr>\n\t                <td>30281</td>\n\t                \n\t                    <td>glu</td>\n\t                    \n\t                    <td>EKQEFAAIKPAE</td>\n\t                    \n\t                    <td>leu</td>\n\t                    \n\t                    <td>12</td>\n\t                    \n\t                    <td>Bacillus atrophaeus NBRC 15539 DNA, contig: BAT01S...</td>\n\t                    \n\t                    <td>NZ_BCVV01000001.1.cluster006.gbk</td>\n\t                    \n\t            </tr>\n\t            <tr>\n\t                <td>30421</td>\n\t                \n\t                    <td>glu</td>\n\t                    \n\t                    <td>NEGPAFSAIEPAEK</td>\n\t                    \n\t                    <td>leu</td>\n\t                    \n\t                    <td>14</td>\n\t                    \n\t                    <td>Bacillus amyloliquefaciens subsp. plantarum UCMB51...</td>\n\t                    \n\t                    <td>NC_022081.1.cluster001.gbk</td>\n\t                    \n\t            </tr>\n\t            <tr>\n\t                <td>30547</td>\n\t                \n\t                    <td>glu</td>\n\t                    \n\t                    <td>NEGPAFRAIEPAEK</td>\n\t                    \n\t                    <td>leu</td>\n\t                    \n\t                    <td>14</td>\n\t                    \n\t                    <td>Bacillus amyloliquefaciens LFB112, complete genome...</td>\n\t                    \n\t                    <td>NC_023073.1.cluster002.gbk</td>\n\t                    \n\t            </tr>\n\t            <tr>\n\t                <td>30648</td>\n\t                \n\t                    <td>glu</td>\n\t                    \n\t                    <td>RNEGPAFSTIEPAEK</td>\n\t                    \n\t                    <td>leu</td>\n\t                    \n\t                    <td>15</td>\n\t                    \n\t                    <td>Bacillus amyloliquefaciens strain RD7-7, complete ...</td>\n\t                    \n\t                    <td>NZ_CP016913.1.cluster002.gbk</td>\n\t                    \n\t            </tr>\n\t            <tr>\n\t                <td>30933</td>\n\t                \n\t                    <td>glu</td>\n\t                    \n\t                    <td>DRSSETVIPKAPA</td>\n\t                    \n\t                    <td>leu</td>\n\t                    \n\t                    <td>13</td>\n\t                    \n\t                    <td>Bacillus pumilus strain LK12, whole genome shotgun...</td>\n\t                    \n\t                    <td>NZ_LDUS01000001.1.cluster002.gbk</td>\n\t                    \n\t            </tr>\n\t            <tr>\n\t                <td>31884</td>\n\t                \n\t                    <td>glu</td>\n\t                    \n\t                    <td>RESKAFAVIEPAE</td>\n\t                    \n\t                    <td>leu</td>\n\t                    \n\t                    <td>13</td>\n\t                    \n\t                    <td>Bacillus gibsonii strain FJAT-10019, complete geno...</td>\n\t                    \n\t                    <td>NZ_CP017070.1.cluster004.gbk</td>\n\t                    \n\t            </tr>\n\t            <tr>\n\t                <td>32088</td>\n\t                \n\t                    <td>glu</td>\n\t                    \n\t                    <td>RESRAFSVIEPAE</td>\n\t                    \n\t                    <td>leu</td>\n\t                    \n\t                    <td>13</td>\n\t                    \n\t                    <td>Bacillus subtilis subsp. subtilis strain 516_BAMY ...</td>\n\t                    \n\t                    <td>NZ_JVEA01000007.1.cluster003.gbk</td>\n\t                    \n\t            </tr>\n\t            <tr>\n\t                <td>32593</td>\n\t                \n\t                    <td>glu</td>\n\t                    \n\t                    <td>EKSSQVVIPKAPT</td>\n\t                    \n\t                    <td>leu</td>\n\t                    \n\t                    <td>13</td>\n\t                    \n\t                    <td>Bacillus stratosphericus strain LK33, whole genome...</td>\n\t                    \n\t                    <td>NZ_LDWU01000001.1.cluster001.gbk</td>\n\t                    \n\t            </tr>\n\t            <tr>\n\t                <td>32639</td>\n\t                \n\t                    <td>glu</td>\n\t                    \n\t                    <td>NEGPAFSAIEPAEK</td>\n\t                    \n\t                    <td>leu</td>\n\t                    \n\t                    <td>14</td>\n\t                    \n\t                    <td>Bacillus velezensis SK19.001 contig30_scaffold19, ...</td>\n\t                    \n\t                    <td>NZ_AOFO01000001.1.cluster005.gbk</td>\n\t                    \n\t            </tr>\n\t            <tr>\n\t                <td>33525</td>\n\t                \n\t                    <td>glu</td>\n\t                    \n\t                    <td>RESRAFSVIEPAE</td>\n\t                    \n\t                    <td>leu</td>\n\t                    \n\t                    <td>13</td>\n\t                    \n\t                    <td>Bacillus subtilis strain BS16045, complete genome.</td>\n\t                    \n\t                    <td>NZ_CP017112.1.cluster001.gbk</td>\n\t                    \n\t            </tr>\n\t            <tr>\n\t                <td>33736</td>\n\t                \n\t                    <td>glu</td>\n\t                    \n\t                    <td>RESKAFAVIEPAE</td>\n\t                    \n\t                    <td>leu</td>\n\t                    \n\t                    <td>13</td>\n\t                    \n\t                    <td>Bacillus subtilis subsp. subtilis str. 168 chromos...</td>\n\t                    \n\t                    <td>NC_000964.3.cluster001.gbk</td>\n\t                    \n\t            </tr>\n\t            <tr>\n\t                <td>33796</td>\n\t                \n\t                    <td>glu</td>\n\t                    \n\t                    <td>NEGPAFSAIEPAEK</td>\n\t                    \n\t                    <td>leu</td>\n\t                    \n\t                    <td>14</td>\n\t                    \n\t                    <td>Bacillus velezensis strain S3-1, complete genome.</td>\n\t                    \n\t                    <td>NZ_CP016371.1.cluster001.gbk</td>\n\t                    \n\t            </tr>\n\t            <tr>\n\t                <td>34520</td>\n\t                \n\t                    <td>glu</td>\n\t                    \n\t                    <td>RESRAFSVIEPAE</td>\n\t                    \n\t                    <td>leu</td>\n\t                    \n\t                    <td>13</td>\n\t                    \n\t                    <td>Bacillus subtilis strain fmb60, whole genome shotg...</td>\n\t                    \n\t                    <td>NZ_LYMC01000001.1.cluster001.gbk</td>\n\t                    \n\t            </tr>\n\t            <tr>\n\t                <td>34654</td>\n\t                \n\t                    <td>glu</td>\n\t                    \n\t                    <td>NEGPAFSAIEPAEK</td>\n\t                    \n\t                    <td>leu</td>\n\t                    \n\t                    <td>14</td>\n\t                    \n\t                    <td>Bacillus velezensis strain K26, whole genome shotg...</td>\n\t                    \n\t                    <td>NZ_BDDG01000001.1.cluster003.gbk</td>\n\t                    \n\t            </tr>\n\t            <tr>\n\t                <td>34771</td>\n\t                \n\t                    <td>glu</td>\n\t                    \n\t                    <td>KQQTATQIARIDA</td>\n\t                    \n\t                    <td>leu</td>\n\t                    \n\t                    <td>13</td>\n\t                    \n\t                    <td>Yersinia entomophaga strain MH96 genome.</td>\n\t                    \n\t                    <td>NZ_CP010029.1.cluster003.gbk</td>\n\t                    \n\t            </tr>\n\t            <tr>\n\t                <td>34776</td>\n\t                \n\t                    <td>glu</td>\n\t                    \n\t                    <td>RESKAFAVIEPAE</td>\n\t                    \n\t                    <td>leu</td>\n\t                    \n\t                    <td>13</td>\n\t                    \n\t                    <td>Bacillus subtilis strain KATMIRA1933 B_sub_1933_01...</td>\n\t                    \n\t                    <td>NZ_JMEF01000001.1.cluster001.gbk</td>\n\t                    \n\t            </tr>\n\t            <tr>\n\t                <td>34797</td>\n\t                \n\t                    <td>glu</td>\n\t                    \n\t                    <td>RESKAFAVIEPAE</td>\n\t                    \n\t                    <td>leu</td>\n\t                    \n\t                    <td>13</td>\n\t                    \n\t                    <td>Bacillus subtilis subsp. subtilis str. SC-8 92_16,...</td>\n\t                    \n\t                    <td>NZ_AGFW01000017.1.cluster001.gbk</td>\n\t                    \n\t            </tr>\n\t            <tr>\n\t                <td>35012</td>\n\t                \n\t                    <td>glu</td>\n\t                    \n\t                    <td>ETSSETVIPKAPA</td>\n\t                    \n\t                    <td>leu</td>\n\t                    \n\t                    <td>13</td>\n\t                    \n\t                    <td>Bacillus pumilus strain PDSLzg-1, complete genome.</td>\n\t                    \n\t                    <td>NZ_CP016784.1.cluster002.gbk</td>\n\t                    \n\t            </tr>\n\t            <tr>\n\t                <td>35139</td>\n\t                \n\t                    <td>glu</td>\n\t                    \n\t                    <td>EKSSQVVIPKAPT</td>\n\t                    \n\t                    <td>leu</td>\n\t                    \n\t                    <td>13</td>\n\t                    \n\t                    <td>Bacillus pumilus strain MTCC B6033, complete genom...</td>\n\t                    \n\t                    <td>NZ_CP007436.1.cluster001.gbk</td>\n\t                    \n\t            </tr>\n\t            <tr>\n\t                <td>35343</td>\n\t                \n\t                    <td>glu</td>\n\t                    \n\t                    <td>RESRAFSVIEPAE</td>\n\t                    \n\t                    <td>leu</td>\n\t                    \n\t                    <td>13</td>\n\t                    \n\t                    <td>Bacillus subtilis strain RE1.4 RE1.4_contig_25, wh...</td>\n\t                    \n\t                    <td>NZ_LWJZ01000001.1.cluster004.gbk</td>\n\t                    \n\t            </tr>\n\t            <tr>\n\t                <td>35491</td>\n\t                \n\t                    <td>glu</td>\n\t                    \n\t                    <td>NEGPAFRAIEPAEK</td>\n\t                    \n\t                    <td>leu</td>\n\t                    \n\t                    <td>14</td>\n\t                    \n\t                    <td>Bacillus amyloliquefaciens subsp. plantarum CAU B9...</td>\n\t                    \n\t                    <td>NC_016784.1.cluster001.gbk</td>\n\t                    \n\t            </tr>\n\t            <tr>\n\t                <td>35720</td>\n\t                \n\t                    <td>glu</td>\n\t                    \n\t                    <td>NEGPAFSAIEPAEK</td>\n\t                    \n\t                    <td>leu</td>\n\t                    \n\t                    <td>14</td>\n\t                    \n\t                    <td>Bacillus amyloliquefaciens subsp. amyloliquefacien...</td>\n\t                    \n\t                    <td>NZ_CP007242.1.cluster001.gbk</td>\n\t                    \n\t            </tr>\n\t            <tr>\n\t                <td>35810</td>\n\t                \n\t                    <td>glu</td>\n\t                    \n\t                    <td>RESKAFAVIEPAE</td>\n\t                    \n\t                    <td>leu</td>\n\t                    \n\t                    <td>13</td>\n\t                    \n\t                    <td>Bacillus subtilis strain HM-66 Contig25, whole gen...</td>\n\t                    \n\t                    <td>NZ_JXBC01000001.1.cluster002.gbk</td>\n\t                    \n\t            </tr>\n\t            <tr>\n\t                <td>35943</td>\n\t                \n\t                    <td>glu</td>\n\t                    \n\t                    <td>RESKAFAVIEPAE</td>\n\t                    \n\t                    <td>leu</td>\n\t                    \n\t                    <td>13</td>\n\t                    \n\t                    <td>Bacillus subtilis subsp. natto strain CGMCC 2108.</td>\n\t                    \n\t                    <td>NZ_CP014471.1.cluster001.gbk</td>\n\t                    \n\t            </tr>\n\t            <tr>\n\t                <td>36202</td>\n\t                \n\t                    <td>glu</td>\n\t                    \n\t                    <td>REIREFAAIEPAE</td>\n\t                    \n\t                    <td>leu</td>\n\t                    \n\t                    <td>13</td>\n\t                    \n\t                    <td>Bacillus subtilis subsp. spizizenii TU-B-10, compl...</td>\n\t                    \n\t                    <td>NC_016047.1.cluster001.gbk</td>\n\t                    \n\t            </tr>\n\t            <tr>\n\t                <td>37118</td>\n\t                \n\t                    <td>glu</td>\n\t                    \n\t                    <td>NEGPAFRAIEPAEK</td>\n\t                    \n\t                    <td>leu</td>\n\t                    \n\t                    <td>14</td>\n\t                    \n\t                    <td>Bacillus sp. LK7, whole genome shotgun sequence.</td>\n\t                    \n\t                    <td>NZ_LDUN01000001.1.cluster004.gbk</td>\n\t                    \n\t            </tr>\n\t            <tr>\n\t                <td>37135</td>\n\t                \n\t                    <td>glu</td>\n\t                    \n\t                    <td>NEGPAFNAIEPAEK</td>\n\t                    \n\t                    <td>leu</td>\n\t                    \n\t                    <td>14</td>\n\t                    \n\t                    <td>Bacillus amyloliquefaciens subsp. plantarum YAU B9...</td>\n\t                    \n\t                    <td>NC_017061.1.cluster001.gbk</td>\n\t                    \n\t            </tr>\n\t            <tr>\n\t                <td>37529</td>\n\t                \n\t                    <td>glu</td>\n\t                    \n\t                    <td>NEGPAFSAIEPAEK</td>\n\t                    \n\t                    <td>leu</td>\n\t                    \n\t                    <td>14</td>\n\t                    \n\t                    <td>Bacillus subtilis strain Bs-916, complete genome.</td>\n\t                    \n\t                    <td>NZ_CP009611.1.cluster002.gbk</td>\n\t                    \n\t            </tr>\n\t            <tr>\n\t                <td>37644</td>\n\t                \n\t                    <td>glu</td>\n\t                    \n\t                    <td>RESKAFAVIEPAE</td>\n\t                    \n\t                    <td>leu</td>\n\t                    \n\t                    <td>13</td>\n\t                    \n\t                    <td>Bacillus subtilis subsp. subtilis strain CU1050, c...</td>\n\t                    \n\t                    <td>NZ_CP014166.1.cluster001.gbk</td>\n\t                    \n\t            </tr>\n\t            <tr>\n\t                <td>37797</td>\n\t                \n\t                    <td>glu</td>\n\t                    \n\t                    <td>RESKAFAVIEPAE</td>\n\t                    \n\t                    <td>leu</td>\n\t                    \n\t                    <td>13</td>\n\t                    \n\t                    <td>Bacillus sp. genome assembly BS34ACh, chromosome :...</td>\n\t                    \n\t                    <td>NZ_LN680001.1.cluster001.gbk</td>\n\t                    \n\t            </tr>\n\t            <tr>\n\t                <td>37893</td>\n\t                \n\t                    <td>glu</td>\n\t                    \n\t                    <td>NEGPAFSAIEPAEK</td>\n\t                    \n\t                    <td>leu</td>\n\t                    \n\t                    <td>14</td>\n\t                    \n\t                    <td>Bacillus amyloliquefaciens strain TF28 genomic sca...</td>\n\t                    \n\t                    <td>NZ_KN723307.1.cluster003.gbk</td>\n\t                    \n\t            </tr>\n\t            <tr>\n\t                <td>37952</td>\n\t                \n\t                    <td>glu</td>\n\t                    \n\t                    <td>REIQEFAAIEPAE</td>\n\t                    \n\t                    <td>leu</td>\n\t                    \n\t                    <td>13</td>\n\t                    \n\t                    <td>Bacillus subtilis strain BST genomic scaffold scaf...</td>\n\t                    \n\t                    <td>NZ_KN049967.1.cluster003.gbk</td>\n\t                    \n\t            </tr>\n\t            <tr>\n\t                <td>37979</td>\n\t                \n\t                    <td>glu</td>\n\t                    \n\t                    <td>EKSSQVVIPKAPT</td>\n\t                    \n\t                    <td>leu</td>\n\t                    \n\t                    <td>13</td>\n\t                    \n\t                    <td>Bacillus sp. Leaf49 contig_10, whole genome shotgu...</td>\n\t                    \n\t                    <td>NZ_LMRK01000001.1.cluster001.gbk</td>\n\t                    \n\t            </tr>\n\t            <tr>\n\t                <td>38204</td>\n\t                \n\t                    <td>glu</td>\n\t                    \n\t                    <td>VEKSSQVVIPKAPT</td>\n\t                    \n\t                    <td>leu</td>\n\t                    \n\t                    <td>14</td>\n\t                    \n\t                    <td>Bacillus cellulasensis strain NIO-1130 genomic sca...</td>\n\t                    \n\t                    <td>NZ_KQ758576.1.cluster001.gbk</td>\n\t                    \n\t            </tr>\n\t            <tr>\n\t                <td>38396</td>\n\t                \n\t                    <td>glu</td>\n\t                    \n\t                    <td>VSRNEGPDYSAIKPAEK</td>\n\t                    \n\t                    <td>leu</td>\n\t                    \n\t                    <td>17</td>\n\t                    \n\t                    <td>Bacillus amyloliquefaciens strain JJC33M contig_4,...</td>\n\t                    \n\t                    <td>NZ_JTJG01000001.1.cluster006.gbk</td>\n\t                    \n\t            </tr>\n\t            <tr>\n\t                <td>38437</td>\n\t                \n\t                    <td>glu</td>\n\t                    \n\t                    <td>RESRAFAAIEPAE</td>\n\t                    \n\t                    <td>leu</td>\n\t                    \n\t                    <td>13</td>\n\t                    \n\t                    <td>Bacillus subtilis subsp. inaquosorum KCTC 13429 14...</td>\n\t                    \n\t                    <td>NZ_AMXN01000001.1.cluster006.gbk</td>\n\t                    \n\t            </tr>\n\t            <tr>\n\t                <td>38471</td>\n\t                \n\t                    <td>glu</td>\n\t                    \n\t                    <td>NEGPAFSAIEPAEK</td>\n\t                    \n\t                    <td>leu</td>\n\t                    \n\t                    <td>14</td>\n\t                    \n\t                    <td>Bacillus amyloliquefaciens subsp. amyloliquefacien...</td>\n\t                    \n\t                    <td>NZ_KB206086.1.cluster003.gbk</td>\n\t                    \n\t            </tr>\n\t            <tr>\n\t                <td>38681</td>\n\t                \n\t                    <td>glu</td>\n\t                    \n\t                    <td>RESKAFAVIEPAE</td>\n\t                    \n\t                    <td>leu</td>\n\t                    \n\t                    <td>13</td>\n\t                    \n\t                    <td>Bacillus subtilis genome assembly BS49Ch, chromoso...</td>\n\t                    \n\t                    <td>NZ_LN649259.1.cluster001.gbk</td>\n\t                    \n\t            </tr>\n\t            <tr>\n\t                <td>38794</td>\n\t                \n\t                    <td>glu</td>\n\t                    \n\t                    <td>EKQEFAAIKPAE</td>\n\t                    \n\t                    <td>leu</td>\n\t                    \n\t                    <td>12</td>\n\t                    \n\t                    <td>Bacillus atrophaeus ATCC 9372-2 contig00015, whole...</td>\n\t                    \n\t                    <td>NZ_AEFU01000032.1.cluster007.gbk</td>\n\t                    \n\t            </tr>\n\t            <tr>\n\t                <td>38810</td>\n\t                \n\t                    <td>glu</td>\n\t                    \n\t                    <td>EKQEFAAIKPAE</td>\n\t                    \n\t                    <td>leu</td>\n\t                    \n\t                    <td>12</td>\n\t                    \n\t                    <td>Bacillus atrophaeus Detrick-1 contig00004, whole g...</td>\n\t                    \n\t                    <td>NZ_AEFP01000031.1.cluster010.gbk</td>\n\t                    \n\t            </tr>\n\t            <tr>\n\t                <td>38907</td>\n\t                \n\t                    <td>glu</td>\n\t                    \n\t                    <td>EKQEFAAIKPAE</td>\n\t                    \n\t                    <td>leu</td>\n\t                    \n\t                    <td>12</td>\n\t                    \n\t                    <td>Bacillus atrophaeus C89 contig000053, whole genome...</td>\n\t                    \n\t                    <td>NZ_AJRJ01000002.1.cluster012.gbk</td>\n\t                    \n\t            </tr>\n\t            <tr>\n\t                <td>6331</td>\n\t                \n\t                    <td>ser</td>\n\t                    \n\t                    <td>TAVRPPLRPQQR</td>\n\t                    \n\t                    <td>asp</td>\n\t                    \n\t                    <td>12</td>\n\t                    \n\t                    <td>Burkholderia rhizoxinica HKI 454 plasmid pBRH01, c...</td>\n\t                    \n\t                    <td>NC_014722.1.cluster008.gbk</td>\n\t                    \n\t            </tr>\n\t            <tr>\n\t                <td>7031</td>\n\t                \n\t                    <td>ser</td>\n\t                    \n\t                    <td>SSELGSWQERVLTVRRQLSALPESHTPFSAVKSFLSDALEPQLVFNYLGQ...</td>\n\t                    \n\t                    <td>asp</td>\n\t                    \n\t                    <td>162</td>\n\t                    \n\t                    <td>Vibrio harveyi E385 Contig_53, whole genome shotgu...</td>\n\t                    \n\t                    <td>NZ_AYKI01000001.1.cluster002.gbk</td>\n\t                    \n\t            </tr>\n\t            <tr>\n\t                <td>7645</td>\n\t                \n\t                    <td>ser</td>\n\t                    \n\t                    <td>APGRVPLSPRERP</td>\n\t                    \n\t                    <td>asp</td>\n\t                    \n\t                    <td>13</td>\n\t                    \n\t                    <td>Kutzneria sp. 744 supercont1.1, whole genome shotg...</td>\n\t                    \n\t                    <td>NZ_KK037166.1.cluster001.gbk</td>\n\t                    \n\t            </tr>\n\t            <tr>\n\t                <td>10417</td>\n\t                \n\t                    <td>ser</td>\n\t                    \n\t                    <td>HQEKEVAVFRAPKNLIPAQCQQLTPEMLPLVDLTPVEIEHLTAQVTGGAE...</td>\n\t                    \n\t                    <td>asp</td>\n\t                    \n\t                    <td>51</td>\n\t                    \n\t                    <td>Pseudoalteromonas sp. NJ631 Scaffold28, whole geno...</td>\n\t                    \n\t                    <td>NZ_AKXJ01000001.1.cluster009.gbk</td>\n\t                    \n\t            </tr>\n\t            <tr>\n\t                <td>11625</td>\n\t                \n\t                    <td>ser</td>\n\t                    \n\t                    <td>AGPARGLTARRER</td>\n\t                    \n\t                    <td>asp</td>\n\t                    \n\t                    <td>13</td>\n\t                    \n\t                    <td>Streptomyces sp. F-1 isolate Streptomyces sp. F1, ...</td>\n\t                    \n\t                    <td>NZ_FKJI03000069.1.cluster003.gbk</td>\n\t                    \n\t            </tr>\n\t            <tr>\n\t                <td>13029</td>\n\t                \n\t                    <td>ser</td>\n\t                    \n\t                    <td>PVEADQPLAAALLATRAALAGTMAGTSGSPDSDIPYLLRRDRSDDAAASA...</td>\n\t                    \n\t                    <td>asp</td>\n\t                    \n\t                    <td>168</td>\n\t                    \n\t                    <td>Azospirillum sp. B510 plasmid pAB510a DNA, complet...</td>\n\t                    \n\t                    <td>NC_013854.1.cluster002.gbk</td>\n\t                    \n\t            </tr>\n\t            <tr>\n\t                <td>13174</td>\n\t                \n\t                    <td>ser</td>\n\t                    \n\t                    <td>SSELGSWQERVLTVRRQLSALPESHTPFSAVKSFLSDALEPQLVFNYLGQ...</td>\n\t                    \n\t                    <td>asp</td>\n\t                    \n\t                    <td>162</td>\n\t                    \n\t                    <td>Vibrio harveyi AOD131 genomic scaffold Scaffold1, ...</td>\n\t                    \n\t                    <td>NZ_KB659985.1.cluster001.gbk</td>\n\t                    \n\t            </tr>\n\t            <tr>\n\t                <td>16114</td>\n\t                \n\t                    <td>ser</td>\n\t                    \n\t                    <td>QGELEQALKRVKEGLRETPHKGLGYGVFKHLGSTGQQQALHALPKAQVVF...</td>\n\t                    \n\t                    <td>asp</td>\n\t                    \n\t                    <td>164</td>\n\t                    \n\t                    <td>Halomonas sp. KM-1 DNA, contig: A001014, whole gen...</td>\n\t                    \n\t                    <td>NZ_BAEU01000173.1.cluster002.gbk</td>\n\t                    \n\t            </tr>\n\t            <tr>\n\t                <td>20709</td>\n\t                \n\t                    <td>ser</td>\n\t                    \n\t                    <td>HQEKEVAVFRAPKNLIPAQCQQLTPEMLPLVDLTPVEIEHLTAQVTGGAE...</td>\n\t                    \n\t                    <td>asp</td>\n\t                    \n\t                    <td>51</td>\n\t                    \n\t                    <td>Pseudoalteromonas piscicida strain S2040 contig006...</td>\n\t                    \n\t                    <td>NZ_JXXW01000001.1.cluster007.gbk</td>\n\t                    \n\t            </tr>\n\t            <tr>\n\t                <td>21373</td>\n\t                \n\t                    <td>ser</td>\n\t                    \n\t                    <td>SGTTRPRLGARER</td>\n\t                    \n\t                    <td>asp</td>\n\t                    \n\t                    <td>13</td>\n\t                    \n\t                    <td>Sciscionella marina DSM 45152 A37UDRAFT_scaffold_1...</td>\n\t                    \n\t                    <td>NZ_KB905380.1.cluster003.gbk</td>\n\t                    \n\t            </tr>\n\t            <tr>\n\t                <td>28919</td>\n\t                \n\t                    <td>ser</td>\n\t                    \n\t                    <td>AGANRIRMALTARER</td>\n\t                    \n\t                    <td>asp</td>\n\t                    \n\t                    <td>15</td>\n\t                    \n\t                    <td>Actinomadura macra NBRC 14102, whole genome shotgu...</td>\n\t                    \n\t                    <td>NZ_BCQT01000001.1.cluster002.gbk</td>\n\t                    \n\t            </tr>\n\t            <tr>\n\t                <td>32210</td>\n\t                \n\t                    <td>ser</td>\n\t                    \n\t                    <td>GGPVAATDEVAANPITPETTRITPDLLPLVALSQDEIDGIVDSVPGGVRN</td>\n\t                    \n\t                    <td>asp</td>\n\t                    \n\t                    <td>50</td>\n\t                    \n\t                    <td>Lysobacter gummosus strain 3.2.11, complete genome...</td>\n\t                    \n\t                    <td>NZ_CP011131.1.cluster003.gbk</td>\n\t                    \n\t            </tr>\n\t            <tr>\n\t                <td>33617</td>\n\t                \n\t                    <td>ser</td>\n\t                    \n\t                    <td>AAEGPAAPPVVPVPR</td>\n\t                    \n\t                    <td>asp</td>\n\t                    \n\t                    <td>15</td>\n\t                    \n\t                    <td>Actinomadura oligospora ATCC 43269 P696DRAFT_scaff...</td>\n\t                    \n\t                    <td>NZ_KI912410.1.cluster003.gbk</td>\n\t                    \n\t            </tr>\n\t            <tr>\n\t                <td>34812</td>\n\t                \n\t                    <td>ser</td>\n\t                    \n\t                    <td>HAGDARPGVRPYVR</td>\n\t                    \n\t                    <td>asp</td>\n\t                    \n\t                    <td>14</td>\n\t                    \n\t                    <td>Streptomyces sp. SPMA113, whole genome shotgun seq...</td>\n\t                    \n\t                    <td>NZ_BDFA01000001.1.cluster003.gbk</td>\n\t                    \n\t            </tr>\n\t            <tr>\n\t                <td>36921</td>\n\t                \n\t                    <td>ser</td>\n\t                    \n\t                    <td>AGPARGTVARRAR</td>\n\t                    \n\t                    <td>asp</td>\n\t                    \n\t                    <td>13</td>\n\t                    \n\t                    <td>Streptomyces flavochromogenes strain NRRL B-2684 c...</td>\n\t                    \n\t                    <td>NZ_JNZO01000001.1.cluster006.gbk</td>\n\t                    \n\t            </tr>\n\t            <tr>\n\t                <td>38841</td>\n\t                \n\t                    <td>ser</td>\n\t                    \n\t                    <td>SSELGSWQERVLTVRRQLSALPESHTPFSAVKSFLSDALEPQLVFNYLGQ...</td>\n\t                    \n\t                    <td>asp</td>\n\t                    \n\t                    <td>162</td>\n\t                    \n\t                    <td>Vibrio harveyi ZJ0603 Scaffold3, whole genome shot...</td>\n\t                    \n\t                    <td>NZ_JH720471.1.cluster002.gbk</td>\n\t                    \n\t            </tr>\n\t        </tbody>\n\t    </table>'
p6
aS'New Linkers Table:'
p7
aS'Old Linkers Table:'
p8
aVTrp,D-Asn,Asp,Thr,Gly--Orn,Asp,D-Ala,Asp,Gly,Ser--3Me-Glu,Kyn
p9
aVTrp,Ser,Asp,Thr,Gly--Orn,Asp,D-Ala,Asp,Gly,Ser--3Me-Glu,Leu
p10
ac__builtin__
set
p11
((lp12
(Vtrp
p13
Vser
p14
tp15
a(V3me-glu
p16
Vleu
p17
tp18
a(Vser
p19
Vasp
p20
tp21
atp22
Rp23
a(lp24
aI2
a(lp25
((Vtrp
p26
Vd-asn
p27
tp28
(Vtrp
p29
Vser
p30
I2
tp31
I0
I0
tp32
a((Vd-asn
p33
Vasp
p34
tp35
(Vser
p36
Vasp
p37
I1
tp38
I1
I0
tp39
a((V3me-glu
p40
Vkyn
p41
tp42
(V3me-glu
p43
Vleu
p44
I2
tp45
I2
I2
tp46
aa.