(lp0
V/static/nourineGraphs/Bacitracin A1.png
p1
ac__builtin__
id
p2
aVBacitracin A1
p3
aV/static/designedGraphs/Bacitracin A1.png
p4
aS'<table id="table_old" class="display table table-striped table-bordered" width="100%">\n\t        <col width="220">\n\t        <col width="220">\n\t        <col width="220">\n\t        <col width="220">\n\t        <col width="220">\n\t        \n\t        <thead>\n\t            <tr>\n\t            <th>Index</th>\n\t        \n\t                <th>A1</th>\n\t            \n\t                <th>Linker</th>\n\t            \n\t                <th>A2</th>\n\t            \n\t                <th>Antibiotic</th>\n\t            \n\t                <th>MIBiD_ID</th>\n\t            \n\t                <th>Length</th>\n\t            \n\t                <th>Cluster</th>\n\t            </tr>\n\t        </thead>\n\t        <tfoot>\n\t            <tr>\n\t            <th>Index</th>\n\t            \n\t                <th>A1</th>\n\t            \n\t                <th>Linker</th>\n\t            \n\t                <th>A2</th>\n\t            \n\t                <th>Antibiotic</th>\n\t            \n\t                <th>MIBiD_ID</th>\n\t            \n\t                <th>Length</th>\n\t            \n\t                <th>Cluster</th>\n\t            </tr>\n\t        </tfoot>\n\t        <tbody>\n\t            <tr>\n\t                <td>569</td>\n\t                \n\t                    <td>asp</td>\n\t                    \n\t                    <td>QETDMSRTIKMVKEHLRNVPNKGIGYGILKYLTRDSEIAKGAASPILFNY...</td>\n\t                    \n\t                    <td>asn</td>\n\t                    \n\t                    <td>Bacitracin biosynthetic gene cluster</td>\n\t                    \n\t                    <td>BGC0000310.1</td>\n\t                    \n\t                    <td>163</td>\n\t                    \n\t                    <td>BGC0000310.1.cluster001.gbk</td>\n\t                    \n\t            </tr>\n\t        </tbody>\n\t    </table>'
p5
aS'<table id="table_new" class="display table table-striped table-bordered" width="100%">\n\t        <col width="220">\n\t        <col width="220">\n\t        <col width="220">\n\t        <col width="220">\n\t        <col width="220">\n\t        \n\t        <thead>\n\t            <tr>\n\t            <th>Index</th>\n\t        \n\t                <th>A1</th>\n\t            \n\t                <th>Linker</th>\n\t            \n\t                <th>A2</th>\n\t            \n\t                <th>Length</th>\n\t            \n\t                <th>Description</th>\n\t            \n\t                <th>Cluster</th>\n\t            </tr>\n\t        </thead>\n\t        <tfoot>\n\t            <tr>\n\t            <th>Index</th>\n\t            \n\t                <th>A1</th>\n\t            \n\t                <th>Linker</th>\n\t            \n\t                <th>A2</th>\n\t            \n\t                <th>Length</th>\n\t            \n\t                <th>Description</th>\n\t            \n\t                <th>Cluster</th>\n\t            </tr>\n\t        </tfoot>\n\t        <tbody>\n\t            <tr>\n\t                <td>554</td>\n\t                \n\t                    <td>asp</td>\n\t                    \n\t                    <td>AVSEGYRMISPADS</td>\n\t                    \n\t                    <td>leu</td>\n\t                    \n\t                    <td>14</td>\n\t                    \n\t                    <td>Bacillus methylotrophicus AS43.3, complete genome.</td>\n\t                    \n\t                    <td>NC_019842.1.cluster001.gbk</td>\n\t                    \n\t            </tr>\n\t            <tr>\n\t                <td>723</td>\n\t                \n\t                    <td>asp</td>\n\t                    \n\t                    <td>AVSEGYRMITPADS</td>\n\t                    \n\t                    <td>leu</td>\n\t                    \n\t                    <td>14</td>\n\t                    \n\t                    <td>Bacillus amyloliquefaciens strain L-H15, complete ...</td>\n\t                    \n\t                    <td>NZ_CP010556.1.cluster001.gbk</td>\n\t                    \n\t            </tr>\n\t            <tr>\n\t                <td>1046</td>\n\t                \n\t                    <td>asp</td>\n\t                    \n\t                    <td>SAVSGGHHVLKPADK</td>\n\t                    \n\t                    <td>leu</td>\n\t                    \n\t                    <td>15</td>\n\t                    \n\t                    <td>Bacillus subtilis subsp. spizizenii RFWG1A3 contig...</td>\n\t                    \n\t                    <td>NZ_AJHL01000001.1.cluster001.gbk</td>\n\t                    \n\t            </tr>\n\t            <tr>\n\t                <td>1074</td>\n\t                \n\t                    <td>asp</td>\n\t                    \n\t                    <td>SAVSGGHQVLKPADK</td>\n\t                    \n\t                    <td>leu</td>\n\t                    \n\t                    <td>15</td>\n\t                    \n\t                    <td>Bacillus subtilis strain LK22, whole genome shotgu...</td>\n\t                    \n\t                    <td>NZ_LDUW01000001.1.cluster001.gbk</td>\n\t                    \n\t            </tr>\n\t            <tr>\n\t                <td>1379</td>\n\t                \n\t                    <td>asp</td>\n\t                    \n\t                    <td>AVSEGYRIISPADS</td>\n\t                    \n\t                    <td>leu</td>\n\t                    \n\t                    <td>14</td>\n\t                    \n\t                    <td>Bacillus amyloliquefaciens strain LPL-K103 contig_...</td>\n\t                    \n\t                    <td>NZ_JXAT01000001.1.cluster006.gbk</td>\n\t                    \n\t            </tr>\n\t            <tr>\n\t                <td>1481</td>\n\t                \n\t                    <td>asp</td>\n\t                    \n\t                    <td>DSSVVTSIQPAEKQD</td>\n\t                    \n\t                    <td>leu</td>\n\t                    \n\t                    <td>15</td>\n\t                    \n\t                    <td>Bacillus pumilus strain LK21, whole genome shotgun...</td>\n\t                    \n\t                    <td>NZ_LDWK01000001.1.cluster001.gbk</td>\n\t                    \n\t            </tr>\n\t            <tr>\n\t                <td>1539</td>\n\t                \n\t                    <td>asp</td>\n\t                    \n\t                    <td>AAVWTDDGKAATDSVMTTAEECIRNEMAPAAKM</td>\n\t                    \n\t                    <td>leu</td>\n\t                    \n\t                    <td>33</td>\n\t                    \n\t                    <td>Paenibacillus kribbensis strain 6hRe76 Scaffold9_1...</td>\n\t                    \n\t                    <td>NZ_MCBP01000010.1.cluster009.gbk</td>\n\t                    \n\t            </tr>\n\t            <tr>\n\t                <td>1950</td>\n\t                \n\t                    <td>asp</td>\n\t                    \n\t                    <td>GQAEQSGIQPAEKR</td>\n\t                    \n\t                    <td>leu</td>\n\t                    \n\t                    <td>14</td>\n\t                    \n\t                    <td>Bacillus licheniformis DSM 13 = ATCC 14580, comple...</td>\n\t                    \n\t                    <td>NC_006322.1.cluster001.gbk</td>\n\t                    \n\t            </tr>\n\t            <tr>\n\t                <td>2556</td>\n\t                \n\t                    <td>asp</td>\n\t                    \n\t                    <td>VDSSDITSIHPAEKQD</td>\n\t                    \n\t                    <td>leu</td>\n\t                    \n\t                    <td>16</td>\n\t                    \n\t                    <td>Bacillus pumilus strain 7P scaffold00003, whole ge...</td>\n\t                    \n\t                    <td>NZ_JHUD02000001.1.cluster002.gbk</td>\n\t                    \n\t            </tr>\n\t            <tr>\n\t                <td>2598</td>\n\t                \n\t                    <td>asp</td>\n\t                    \n\t                    <td>VVEGTDDGRSATGSVMNTAEDRIRNEMAPAAKR</td>\n\t                    \n\t                    <td>leu</td>\n\t                    \n\t                    <td>33</td>\n\t                    \n\t                    <td>Paenibacillus peoriae KCTC 3763 contig10, whole ge...</td>\n\t                    \n\t                    <td>NZ_AGFX01000049.1.cluster007.gbk</td>\n\t                    \n\t            </tr>\n\t            <tr>\n\t                <td>2723</td>\n\t                \n\t                    <td>asp</td>\n\t                    \n\t                    <td>SSQSGGYRKITPAKK</td>\n\t                    \n\t                    <td>leu</td>\n\t                    \n\t                    <td>15</td>\n\t                    \n\t                    <td>Bacillus atrophaeus strain DJHJ8, whole genome sho...</td>\n\t                    \n\t                    <td>NZ_BDDH01000001.1.cluster006.gbk</td>\n\t                    \n\t            </tr>\n\t            <tr>\n\t                <td>2979</td>\n\t                \n\t                    <td>asp</td>\n\t                    \n\t                    <td>DNEKELSMTIKTVKEALRKIPNKGIGYGILKHLVEDQDLLNAEQPPILFN...</td>\n\t                    \n\t                    <td>leu</td>\n\t                    \n\t                    <td>164</td>\n\t                    \n\t                    <td>Bacillus cereus BAG5X1-1 genomic scaffold supercon...</td>\n\t                    \n\t                    <td>NZ_JH791996.1.cluster002.gbk</td>\n\t                    \n\t            </tr>\n\t            <tr>\n\t                <td>4266</td>\n\t                \n\t                    <td>asp</td>\n\t                    \n\t                    <td>SAVSRCHQVLKPADK</td>\n\t                    \n\t                    <td>leu</td>\n\t                    \n\t                    <td>15</td>\n\t                    \n\t                    <td>Bacillus subtilis strain RE1.4 RE1.4_contig_48, wh...</td>\n\t                    \n\t                    <td>NZ_LWJZ01000001.1.cluster007.gbk</td>\n\t                    \n\t            </tr>\n\t            <tr>\n\t                <td>4438</td>\n\t                \n\t                    <td>asp</td>\n\t                    \n\t                    <td>SAVSGGHHVLKPADK</td>\n\t                    \n\t                    <td>leu</td>\n\t                    \n\t                    <td>15</td>\n\t                    \n\t                    <td>Bacillus subtilis subsp. spizizenii str. W23, comp...</td>\n\t                    \n\t                    <td>NC_014479.1.cluster001.gbk</td>\n\t                    \n\t            </tr>\n\t            <tr>\n\t                <td>5376</td>\n\t                \n\t                    <td>asp</td>\n\t                    \n\t                    <td>SAVSGGHQVLKPADK</td>\n\t                    \n\t                    <td>leu</td>\n\t                    \n\t                    <td>15</td>\n\t                    \n\t                    <td>Bacillus sp. LM 4-2, complete genome.</td>\n\t                    \n\t                    <td>NZ_CP011101.1.cluster001.gbk</td>\n\t                    \n\t            </tr>\n\t            <tr>\n\t                <td>5425</td>\n\t                \n\t                    <td>asp</td>\n\t                    \n\t                    <td>SAVSGGHHVLKPADK</td>\n\t                    \n\t                    <td>leu</td>\n\t                    \n\t                    <td>15</td>\n\t                    \n\t                    <td>Bacillus subtilis subsp. spizizenii ATCC 6633 cont...</td>\n\t                    \n\t                    <td>NZ_ADGS01000037.1.cluster001.gbk</td>\n\t                    \n\t            </tr>\n\t            <tr>\n\t                <td>5458</td>\n\t                \n\t                    <td>asp</td>\n\t                    \n\t                    <td>AVSEKYRMISPADS</td>\n\t                    \n\t                    <td>leu</td>\n\t                    \n\t                    <td>14</td>\n\t                    \n\t                    <td>Bacillus siamensis strain XY18 contig_16, whole ge...</td>\n\t                    \n\t                    <td>NZ_LAGT01000001.1.cluster003.gbk</td>\n\t                    \n\t            </tr>\n\t            <tr>\n\t                <td>5669</td>\n\t                \n\t                    <td>asp</td>\n\t                    \n\t                    <td>AQSGGYRKITPAKK</td>\n\t                    \n\t                    <td>leu</td>\n\t                    \n\t                    <td>14</td>\n\t                    \n\t                    <td>Bacillus atrophaeus 1942, complete genome.</td>\n\t                    \n\t                    <td>NC_014639.1.cluster006.gbk</td>\n\t                    \n\t            </tr>\n\t            <tr>\n\t                <td>5920</td>\n\t                \n\t                    <td>asp</td>\n\t                    \n\t                    <td>GQAEQSGIQPAEKR</td>\n\t                    \n\t                    <td>leu</td>\n\t                    \n\t                    <td>14</td>\n\t                    \n\t                    <td>Bacillus licheniformis strain RE1.59 RE1.59_contig...</td>\n\t                    \n\t                    <td>NZ_LWKD01000001.1.cluster001.gbk</td>\n\t                    \n\t            </tr>\n\t            <tr>\n\t                <td>6053</td>\n\t                \n\t                    <td>asp</td>\n\t                    \n\t                    <td>DASLVTSIQPAEKQD</td>\n\t                    \n\t                    <td>leu</td>\n\t                    \n\t                    <td>15</td>\n\t                    \n\t                    <td>Bacillus pumilus INR7 contig31, whole genome shotg...</td>\n\t                    \n\t                    <td>NZ_AYTK01000001.1.cluster003.gbk</td>\n\t                    \n\t            </tr>\n\t            <tr>\n\t                <td>6819</td>\n\t                \n\t                    <td>asp</td>\n\t                    \n\t                    <td>AVSEGYRMISPADS</td>\n\t                    \n\t                    <td>leu</td>\n\t                    \n\t                    <td>14</td>\n\t                    \n\t                    <td>Bacillus velezensis strain KACC 18228 contig_8, wh...</td>\n\t                    \n\t                    <td>NZ_LLZA01000001.1.cluster007.gbk</td>\n\t                    \n\t            </tr>\n\t            <tr>\n\t                <td>6896</td>\n\t                \n\t                    <td>asp</td>\n\t                    \n\t                    <td>AVSEGYRMISPADS</td>\n\t                    \n\t                    <td>leu</td>\n\t                    \n\t                    <td>14</td>\n\t                    \n\t                    <td>Bacillus sp. Pc3, complete genome.</td>\n\t                    \n\t                    <td>NZ_CP010406.1.cluster003.gbk</td>\n\t                    \n\t            </tr>\n\t            <tr>\n\t                <td>6954</td>\n\t                \n\t                    <td>asp</td>\n\t                    \n\t                    <td>AVSEGYRMISPADS</td>\n\t                    \n\t                    <td>leu</td>\n\t                    \n\t                    <td>14</td>\n\t                    \n\t                    <td>Bacillus amyloliquefaciens subsp. plantarum UCMB50...</td>\n\t                    \n\t                    <td>NC_020410.1.cluster001.gbk</td>\n\t                    \n\t            </tr>\n\t            <tr>\n\t                <td>7225</td>\n\t                \n\t                    <td>asp</td>\n\t                    \n\t                    <td>EGQSQQSAIQPAEKR</td>\n\t                    \n\t                    <td>leu</td>\n\t                    \n\t                    <td>15</td>\n\t                    \n\t                    <td>Bacillus paralicheniformis strain KJ-16 contig_13,...</td>\n\t                    \n\t                    <td>NZ_LBMN02000001.1.cluster002.gbk</td>\n\t                    \n\t            </tr>\n\t            <tr>\n\t                <td>7306</td>\n\t                \n\t                    <td>asp</td>\n\t                    \n\t                    <td>AVSEGYRMISPADS</td>\n\t                    \n\t                    <td>leu</td>\n\t                    \n\t                    <td>14</td>\n\t                    \n\t                    <td>Bacillus amyloliquefaciens CC178, complete genome.</td>\n\t                    \n\t                    <td>NC_022653.1.cluster001.gbk</td>\n\t                    \n\t            </tr>\n\t            <tr>\n\t                <td>7702</td>\n\t                \n\t                    <td>asp</td>\n\t                    \n\t                    <td>DASLVTSIQPAEKQD</td>\n\t                    \n\t                    <td>leu</td>\n\t                    \n\t                    <td>15</td>\n\t                    \n\t                    <td>Bacillus pumilus DNA, complete genome, strain: TUA...</td>\n\t                    \n\t                    <td>NZ_AP014928.1.cluster001.gbk</td>\n\t                    \n\t            </tr>\n\t            <tr>\n\t                <td>7736</td>\n\t                \n\t                    <td>asp</td>\n\t                    \n\t                    <td>SAVSGGHQVLKPADK</td>\n\t                    \n\t                    <td>leu</td>\n\t                    \n\t                    <td>15</td>\n\t                    \n\t                    <td>Bacillus subtilis strain HRBS-10TDI13, complete ge...</td>\n\t                    \n\t                    <td>NZ_CP015222.1.cluster002.gbk</td>\n\t                    \n\t            </tr>\n\t            <tr>\n\t                <td>7764</td>\n\t                \n\t                    <td>asp</td>\n\t                    \n\t                    <td>AVSEGYRMISPADS</td>\n\t                    \n\t                    <td>leu</td>\n\t                    \n\t                    <td>14</td>\n\t                    \n\t                    <td>Bacillus amyloliquefaciens HB-26 contig22, whole g...</td>\n\t                    \n\t                    <td>NZ_AUWK01000001.1.cluster005.gbk</td>\n\t                    \n\t            </tr>\n\t            <tr>\n\t                <td>7859</td>\n\t                \n\t                    <td>asp</td>\n\t                    \n\t                    <td>AVSEGYRMIRPAGAA</td>\n\t                    \n\t                    <td>leu</td>\n\t                    \n\t                    <td>15</td>\n\t                    \n\t                    <td>Bacillus amyloliquefaciens XH7, complete genome.</td>\n\t                    \n\t                    <td>NC_017191.1.cluster001.gbk</td>\n\t                    \n\t            </tr>\n\t            <tr>\n\t                <td>7884</td>\n\t                \n\t                    <td>asp</td>\n\t                    \n\t                    <td>DSSVVTSIQPAEKQD</td>\n\t                    \n\t                    <td>leu</td>\n\t                    \n\t                    <td>15</td>\n\t                    \n\t                    <td>Bacillus sp. Root920 contig_1, whole genome shotgu...</td>\n\t                    \n\t                    <td>NZ_LMJV01000001.1.cluster001.gbk</td>\n\t                    \n\t            </tr>\n\t            <tr>\n\t                <td>8142</td>\n\t                \n\t                    <td>asp</td>\n\t                    \n\t                    <td>DSSVVTSIQPAEKQD</td>\n\t                    \n\t                    <td>leu</td>\n\t                    \n\t                    <td>15</td>\n\t                    \n\t                    <td>Bacillus safensis strain RP10 Scaffold00004, whole...</td>\n\t                    \n\t                    <td>NZ_MKXN01000001.1.cluster002.gbk</td>\n\t                    \n\t            </tr>\n\t            <tr>\n\t                <td>8474</td>\n\t                \n\t                    <td>asp</td>\n\t                    \n\t                    <td>AASGGYHMLKPADK</td>\n\t                    \n\t                    <td>leu</td>\n\t                    \n\t                    <td>14</td>\n\t                    \n\t                    <td>Bacillus mojavensis RO-H-1 genomic scaffold gbs2c....</td>\n\t                    \n\t                    <td>NZ_JH600277.1.cluster002.gbk</td>\n\t                    \n\t            </tr>\n\t            <tr>\n\t                <td>8522</td>\n\t                \n\t                    <td>asp</td>\n\t                    \n\t                    <td>AVSEGYRMISPADS</td>\n\t                    \n\t                    <td>leu</td>\n\t                    \n\t                    <td>14</td>\n\t                    \n\t                    <td>Bacillus amyloliquefaciens subsp. plantarum str. F...</td>\n\t                    \n\t                    <td>NC_009725.1.cluster001.gbk</td>\n\t                    \n\t            </tr>\n\t            <tr>\n\t                <td>8823</td>\n\t                \n\t                    <td>asp</td>\n\t                    \n\t                    <td>SAVSGGHQVLKPADK</td>\n\t                    \n\t                    <td>leu</td>\n\t                    \n\t                    <td>15</td>\n\t                    \n\t                    <td>Bacillus subtilis strain SG6, complete genome.</td>\n\t                    \n\t                    <td>NZ_CP009796.1.cluster001.gbk</td>\n\t                    \n\t            </tr>\n\t            <tr>\n\t                <td>9165</td>\n\t                \n\t                    <td>asp</td>\n\t                    \n\t                    <td>DASLVTSIQPAEKQD</td>\n\t                    \n\t                    <td>leu</td>\n\t                    \n\t                    <td>15</td>\n\t                    \n\t                    <td>Bacillus pumilus BA06 BA_1125, whole genome shotgu...</td>\n\t                    \n\t                    <td>NZ_AMDH01000001.1.cluster001.gbk</td>\n\t                    \n\t            </tr>\n\t            <tr>\n\t                <td>9199</td>\n\t                \n\t                    <td>asp</td>\n\t                    \n\t                    <td>SAVSGGHQVLKPADK</td>\n\t                    \n\t                    <td>leu</td>\n\t                    \n\t                    <td>15</td>\n\t                    \n\t                    <td>Bacillus subtilis BSn5, complete genome.</td>\n\t                    \n\t                    <td>NC_014976.1.cluster003.gbk</td>\n\t                    \n\t            </tr>\n\t            <tr>\n\t                <td>9318</td>\n\t                \n\t                    <td>asp</td>\n\t                    \n\t                    <td>EKGNYSDIQPAQL</td>\n\t                    \n\t                    <td>leu</td>\n\t                    \n\t                    <td>13</td>\n\t                    \n\t                    <td>Brevibacillus laterosporus DSM 25 genomic scaffold...</td>\n\t                    \n\t                    <td>NZ_KB894284.1.cluster009.gbk</td>\n\t                    \n\t            </tr>\n\t            <tr>\n\t                <td>9402</td>\n\t                \n\t                    <td>asp</td>\n\t                    \n\t                    <td>SAVSGGHQVLKPADK</td>\n\t                    \n\t                    <td>leu</td>\n\t                    \n\t                    <td>15</td>\n\t                    \n\t                    <td>Bacillus subtilis strain B4069 NODE_78, whole geno...</td>\n\t                    \n\t                    <td>NZ_JXHL01000001.1.cluster002.gbk</td>\n\t                    \n\t            </tr>\n\t            <tr>\n\t                <td>9635</td>\n\t                \n\t                    <td>asp</td>\n\t                    \n\t                    <td>SAVSGGHQVLKPADK</td>\n\t                    \n\t                    <td>leu</td>\n\t                    \n\t                    <td>15</td>\n\t                    \n\t                    <td>Bacillus sp. JS, complete genome.</td>\n\t                    \n\t                    <td>NC_017743.1.cluster001.gbk</td>\n\t                    \n\t            </tr>\n\t            <tr>\n\t                <td>9669</td>\n\t                \n\t                    <td>asp</td>\n\t                    \n\t                    <td>SAVSGGHQVLKPADK</td>\n\t                    \n\t                    <td>leu</td>\n\t                    \n\t                    <td>15</td>\n\t                    \n\t                    <td>Bacillus subtilis strain BS38, complete genome.</td>\n\t                    \n\t                    <td>NZ_CP017314.1.cluster001.gbk</td>\n\t                    \n\t            </tr>\n\t            <tr>\n\t                <td>9814</td>\n\t                \n\t                    <td>asp</td>\n\t                    \n\t                    <td>DASLVTSIQPAEKQD</td>\n\t                    \n\t                    <td>leu</td>\n\t                    \n\t                    <td>15</td>\n\t                    \n\t                    <td>Bacillus stratosphericus LAMA 585 Contig15, whole ...</td>\n\t                    \n\t                    <td>NZ_APAS01000019.1.cluster001.gbk</td>\n\t                    \n\t            </tr>\n\t            <tr>\n\t                <td>10081</td>\n\t                \n\t                    <td>asp</td>\n\t                    \n\t                    <td>AVSEGYRMISPAAS</td>\n\t                    \n\t                    <td>leu</td>\n\t                    \n\t                    <td>14</td>\n\t                    \n\t                    <td>Bacillus velezensis strain SRCM100731 contig00034,...</td>\n\t                    \n\t                    <td>NZ_LYUF01000001.1.cluster004.gbk</td>\n\t                    \n\t            </tr>\n\t            <tr>\n\t                <td>10480</td>\n\t                \n\t                    <td>asp</td>\n\t                    \n\t                    <td>SAVSGGHQVLKPADK</td>\n\t                    \n\t                    <td>leu</td>\n\t                    \n\t                    <td>15</td>\n\t                    \n\t                    <td>Bacillus sp. A053 Contig5, whole genome shotgun se...</td>\n\t                    \n\t                    <td>NZ_JXAJ01000001.1.cluster005.gbk</td>\n\t                    \n\t            </tr>\n\t            <tr>\n\t                <td>11288</td>\n\t                \n\t                    <td>asp</td>\n\t                    \n\t                    <td>AVSEGYRMISPADS</td>\n\t                    \n\t                    <td>leu</td>\n\t                    \n\t                    <td>14</td>\n\t                    \n\t                    <td>Bacillus velezensis strain RC218 RC218_contig_1, w...</td>\n\t                    \n\t                    <td>NZ_LQCL01000001.1.cluster001.gbk</td>\n\t                    \n\t            </tr>\n\t            <tr>\n\t                <td>11476</td>\n\t                \n\t                    <td>asp</td>\n\t                    \n\t                    <td>SAVSGGHQVLKPADK</td>\n\t                    \n\t                    <td>leu</td>\n\t                    \n\t                    <td>15</td>\n\t                    \n\t                    <td>Bacillus subtilis strain B4068 NODE_40, whole geno...</td>\n\t                    \n\t                    <td>NZ_JXHK01000001.1.cluster004.gbk</td>\n\t                    \n\t            </tr>\n\t            <tr>\n\t                <td>11488</td>\n\t                \n\t                    <td>asp</td>\n\t                    \n\t                    <td>AVSEGYRMITPADS</td>\n\t                    \n\t                    <td>leu</td>\n\t                    \n\t                    <td>14</td>\n\t                    \n\t                    <td>Bacillus sp. 5B6 5B6, whole genome shotgun sequenc...</td>\n\t                    \n\t                    <td>NZ_AJST01000001.1.cluster001.gbk</td>\n\t                    \n\t            </tr>\n\t            <tr>\n\t                <td>11821</td>\n\t                \n\t                    <td>asp</td>\n\t                    \n\t                    <td>DSSVVTSIEPAEKQD</td>\n\t                    \n\t                    <td>leu</td>\n\t                    \n\t                    <td>15</td>\n\t                    \n\t                    <td>Bacillus sp. WP8, complete genome.</td>\n\t                    \n\t                    <td>NZ_CP010075.1.cluster001.gbk</td>\n\t                    \n\t            </tr>\n\t            <tr>\n\t                <td>11864</td>\n\t                \n\t                    <td>asp</td>\n\t                    \n\t                    <td>SAVSGGHQVLKPADK</td>\n\t                    \n\t                    <td>leu</td>\n\t                    \n\t                    <td>15</td>\n\t                    \n\t                    <td>Bacillus subtilis subsp. subtilis str. AUSI98 geno...</td>\n\t                    \n\t                    <td>NZ_JH600074.1.cluster001.gbk</td>\n\t                    \n\t            </tr>\n\t            <tr>\n\t                <td>12250</td>\n\t                \n\t                    <td>asp</td>\n\t                    \n\t                    <td>AQSGGYRKITPAKK</td>\n\t                    \n\t                    <td>leu</td>\n\t                    \n\t                    <td>14</td>\n\t                    \n\t                    <td>Bacillus atrophaeus strain NRRL NRS 213 Bacillus_a...</td>\n\t                    \n\t                    <td>NZ_LSBB01000001.1.cluster005.gbk</td>\n\t                    \n\t            </tr>\n\t            <tr>\n\t                <td>12766</td>\n\t                \n\t                    <td>asp</td>\n\t                    \n\t                    <td>AVSEGYRMISPADS</td>\n\t                    \n\t                    <td>leu</td>\n\t                    \n\t                    <td>14</td>\n\t                    \n\t                    <td>Bacillus amyloliquefaciens subsp. plantarum TrigoC...</td>\n\t                    \n\t                    <td>NZ_CP007244.1.cluster001.gbk</td>\n\t                    \n\t            </tr>\n\t            <tr>\n\t                <td>12775</td>\n\t                \n\t                    <td>asp</td>\n\t                    \n\t                    <td>AVSEGYRMITPADS</td>\n\t                    \n\t                    <td>leu</td>\n\t                    \n\t                    <td>14</td>\n\t                    \n\t                    <td>Bacillus amyloliquefaciens strain Y14, complete ge...</td>\n\t                    \n\t                    <td>NZ_CP017953.1.cluster001.gbk</td>\n\t                    \n\t            </tr>\n\t            <tr>\n\t                <td>12813</td>\n\t                \n\t                    <td>asp</td>\n\t                    \n\t                    <td>DASLVTSIQPAEKQD</td>\n\t                    \n\t                    <td>leu</td>\n\t                    \n\t                    <td>15</td>\n\t                    \n\t                    <td>Bacillus pumilus strain ku-bf1 genome.</td>\n\t                    \n\t                    <td>NZ_CP014165.1.cluster001.gbk</td>\n\t                    \n\t            </tr>\n\t            <tr>\n\t                <td>13608</td>\n\t                \n\t                    <td>asp</td>\n\t                    \n\t                    <td>AVSEGYRMISPADS</td>\n\t                    \n\t                    <td>leu</td>\n\t                    \n\t                    <td>14</td>\n\t                    \n\t                    <td>Bacillus amyloliquefaciens subsp. plantarum UCMB50...</td>\n\t                    \n\t                    <td>NC_022075.1.cluster002.gbk</td>\n\t                    \n\t            </tr>\n\t            <tr>\n\t                <td>13708</td>\n\t                \n\t                    <td>asp</td>\n\t                    \n\t                    <td>DASLVTSIQPAEKQD</td>\n\t                    \n\t                    <td>leu</td>\n\t                    \n\t                    <td>15</td>\n\t                    \n\t                    <td>Bacillus stratosphericus strain LK23, whole genome...</td>\n\t                    \n\t                    <td>NZ_LDWL01000001.1.cluster001.gbk</td>\n\t                    \n\t            </tr>\n\t            <tr>\n\t                <td>13822</td>\n\t                \n\t                    <td>asp</td>\n\t                    \n\t                    <td>DSSVVTSIQPAEKQD</td>\n\t                    \n\t                    <td>leu</td>\n\t                    \n\t                    <td>15</td>\n\t                    \n\t                    <td>Bacillus pumilus strain Fairview contig31_3, whole...</td>\n\t                    \n\t                    <td>NZ_JFBY01000001.1.cluster003.gbk</td>\n\t                    \n\t            </tr>\n\t            <tr>\n\t                <td>13981</td>\n\t                \n\t                    <td>asp</td>\n\t                    \n\t                    <td>AASGGYHMLKPADK</td>\n\t                    \n\t                    <td>leu</td>\n\t                    \n\t                    <td>14</td>\n\t                    \n\t                    <td>[Brevibacterium] halotolerans strain ATCC 25096 co...</td>\n\t                    \n\t                    <td>NZ_LPVF01000001.1.cluster001.gbk</td>\n\t                    \n\t            </tr>\n\t            <tr>\n\t                <td>14306</td>\n\t                \n\t                    <td>asp</td>\n\t                    \n\t                    <td>AASGGYHMLKPADK</td>\n\t                    \n\t                    <td>leu</td>\n\t                    \n\t                    <td>14</td>\n\t                    \n\t                    <td>Bacillus malacitensis strain NRRL B-41618 contig_2...</td>\n\t                    \n\t                    <td>NZ_LPVE01000001.1.cluster003.gbk</td>\n\t                    \n\t            </tr>\n\t            <tr>\n\t                <td>14771</td>\n\t                \n\t                    <td>asp</td>\n\t                    \n\t                    <td>ASVVSGGHQVLKPADKQ</td>\n\t                    \n\t                    <td>leu</td>\n\t                    \n\t                    <td>17</td>\n\t                    \n\t                    <td>Bacillus subtilis subsp. subtilis RO-NN-1, complet...</td>\n\t                    \n\t                    <td>NC_017195.1.cluster001.gbk</td>\n\t                    \n\t            </tr>\n\t            <tr>\n\t                <td>15030</td>\n\t                \n\t                    <td>asp</td>\n\t                    \n\t                    <td>AVSDGYRMIQPAAA</td>\n\t                    \n\t                    <td>leu</td>\n\t                    \n\t                    <td>14</td>\n\t                    \n\t                    <td>Bacillus nakamurai strain NRRL B-41091 Bacillus-sp...</td>\n\t                    \n\t                    <td>NZ_LSAZ01000001.1.cluster003.gbk</td>\n\t                    \n\t            </tr>\n\t            <tr>\n\t                <td>15168</td>\n\t                \n\t                    <td>asp</td>\n\t                    \n\t                    <td>SAVSGGHQVLKPADK</td>\n\t                    \n\t                    <td>leu</td>\n\t                    \n\t                    <td>15</td>\n\t                    \n\t                    <td>Bacillus subtilis subsp. subtilis strain BSD-2, co...</td>\n\t                    \n\t                    <td>NZ_CP013654.1.cluster004.gbk</td>\n\t                    \n\t            </tr>\n\t            <tr>\n\t                <td>15219</td>\n\t                \n\t                    <td>asp</td>\n\t                    \n\t                    <td>EGQSQQSAIQPAEKR</td>\n\t                    \n\t                    <td>leu</td>\n\t                    \n\t                    <td>15</td>\n\t                    \n\t                    <td>Bacillus licheniformis strain S27 Seq5, whole geno...</td>\n\t                    \n\t                    <td>NZ_LFIM01000001.1.cluster008.gbk</td>\n\t                    \n\t            </tr>\n\t            <tr>\n\t                <td>15369</td>\n\t                \n\t                    <td>asp</td>\n\t                    \n\t                    <td>SAVSGGHQVLKPADK</td>\n\t                    \n\t                    <td>leu</td>\n\t                    \n\t                    <td>15</td>\n\t                    \n\t                    <td>Bacillus sp. FJAT-14266, complete genome.</td>\n\t                    \n\t                    <td>NZ_CP017072.1.cluster004.gbk</td>\n\t                    \n\t            </tr>\n\t            <tr>\n\t                <td>15463</td>\n\t                \n\t                    <td>asp</td>\n\t                    \n\t                    <td>SAVSGGHHVLKPADK</td>\n\t                    \n\t                    <td>leu</td>\n\t                    \n\t                    <td>15</td>\n\t                    \n\t                    <td>Bacillus subtilis subsp. spizizenii RFWG4C10 conti...</td>\n\t                    \n\t                    <td>NZ_AJHN01000001.1.cluster001.gbk</td>\n\t                    \n\t            </tr>\n\t            <tr>\n\t                <td>15744</td>\n\t                \n\t                    <td>asp</td>\n\t                    \n\t                    <td>SAVSGGHQVLKPADK</td>\n\t                    \n\t                    <td>leu</td>\n\t                    \n\t                    <td>15</td>\n\t                    \n\t                    <td>Bacillus sp. YP1, complete genome.</td>\n\t                    \n\t                    <td>NZ_CP010014.1.cluster001.gbk</td>\n\t                    \n\t            </tr>\n\t            <tr>\n\t                <td>16108</td>\n\t                \n\t                    <td>asp</td>\n\t                    \n\t                    <td>DSSVVTSIEPAEKQD</td>\n\t                    \n\t                    <td>leu</td>\n\t                    \n\t                    <td>15</td>\n\t                    \n\t                    <td>Bacillus sp. G1(2015b) Contig1, whole genome shotg...</td>\n\t                    \n\t                    <td>NZ_LKIC01000001.1.cluster001.gbk</td>\n\t                    \n\t            </tr>\n\t            <tr>\n\t                <td>16421</td>\n\t                \n\t                    <td>asp</td>\n\t                    \n\t                    <td>GQAEQSGIQPAEKR</td>\n\t                    \n\t                    <td>leu</td>\n\t                    \n\t                    <td>14</td>\n\t                    \n\t                    <td>Bacillus licheniformis strain RE1.58 RE1.58_contig...</td>\n\t                    \n\t                    <td>NZ_LWKC01000001.1.cluster001.gbk</td>\n\t                    \n\t            </tr>\n\t            <tr>\n\t                <td>16503</td>\n\t                \n\t                    <td>asp</td>\n\t                    \n\t                    <td>GQAEQSGIQPAEKR</td>\n\t                    \n\t                    <td>leu</td>\n\t                    \n\t                    <td>14</td>\n\t                    \n\t                    <td>Bacillus licheniformis WX-02 genome.</td>\n\t                    \n\t                    <td>NZ_CP012110.1.cluster001.gbk</td>\n\t                    \n\t            </tr>\n\t            <tr>\n\t                <td>16837</td>\n\t                \n\t                    <td>asp</td>\n\t                    \n\t                    <td>DSAAVTAIQPAKKQD</td>\n\t                    \n\t                    <td>leu</td>\n\t                    \n\t                    <td>15</td>\n\t                    \n\t                    <td>Bacillus xiamenensis strain VV3, complete genome.</td>\n\t                    \n\t                    <td>NZ_CP017786.1.cluster001.gbk</td>\n\t                    \n\t            </tr>\n\t            <tr>\n\t                <td>16971</td>\n\t                \n\t                    <td>asp</td>\n\t                    \n\t                    <td>SAVSGGHQVLKPADK</td>\n\t                    \n\t                    <td>leu</td>\n\t                    \n\t                    <td>15</td>\n\t                    \n\t                    <td>Bacillus subtilis strain B4073 NODE_124, whole gen...</td>\n\t                    \n\t                    <td>NZ_JXHP01000001.1.cluster002.gbk</td>\n\t                    \n\t            </tr>\n\t            <tr>\n\t                <td>17129</td>\n\t                \n\t                    <td>asp</td>\n\t                    \n\t                    <td>SAVSGGHQVLKPADK</td>\n\t                    \n\t                    <td>leu</td>\n\t                    \n\t                    <td>15</td>\n\t                    \n\t                    <td>Bacillus subtilis subsp. subtilis strain 516_BAMY ...</td>\n\t                    \n\t                    <td>NZ_JVEA01000007.1.cluster011.gbk</td>\n\t                    \n\t            </tr>\n\t            <tr>\n\t                <td>17155</td>\n\t                \n\t                    <td>asp</td>\n\t                    \n\t                    <td>SAVSGGHQVLKPADK</td>\n\t                    \n\t                    <td>leu</td>\n\t                    \n\t                    <td>15</td>\n\t                    \n\t                    <td>Bacillus subtilis strain WAUSV36 scaffold00001, wh...</td>\n\t                    \n\t                    <td>NZ_LWLQ01000001.1.cluster004.gbk</td>\n\t                    \n\t            </tr>\n\t            <tr>\n\t                <td>17431</td>\n\t                \n\t                    <td>asp</td>\n\t                    \n\t                    <td>KVVSSDMTSIQPAEKQD</td>\n\t                    \n\t                    <td>leu</td>\n\t                    \n\t                    <td>17</td>\n\t                    \n\t                    <td>Bacillus pumilus SAFR-032, complete genome.</td>\n\t                    \n\t                    <td>NC_009848.4.cluster001.gbk</td>\n\t                    \n\t            </tr>\n\t            <tr>\n\t                <td>17616</td>\n\t                \n\t                    <td>asp</td>\n\t                    \n\t                    <td>EKSDYVDIQPAPL</td>\n\t                    \n\t                    <td>leu</td>\n\t                    \n\t                    <td>13</td>\n\t                    \n\t                    <td>Brevibacillus laterosporus GI-9 WGS project CAGD00...</td>\n\t                    \n\t                    <td>NZ_CAGD01000059.1.cluster008.gbk</td>\n\t                    \n\t            </tr>\n\t            <tr>\n\t                <td>17959</td>\n\t                \n\t                    <td>asp</td>\n\t                    \n\t                    <td>AVSEGYRMITPADS</td>\n\t                    \n\t                    <td>leu</td>\n\t                    \n\t                    <td>14</td>\n\t                    \n\t                    <td>Bacillus amyloliquefaciens UASWS BA1 Contig015, wh...</td>\n\t                    \n\t                    <td>NZ_AWQY01000001.1.cluster007.gbk</td>\n\t                    \n\t            </tr>\n\t            <tr>\n\t                <td>17991</td>\n\t                \n\t                    <td>asp</td>\n\t                    \n\t                    <td>DSSVVTSIQPAEKQD</td>\n\t                    \n\t                    <td>leu</td>\n\t                    \n\t                    <td>15</td>\n\t                    \n\t                    <td>Bacillus pumilus strain LK32, whole genome shotgun...</td>\n\t                    \n\t                    <td>NZ_LDWT01000001.1.cluster001.gbk</td>\n\t                    \n\t            </tr>\n\t            <tr>\n\t                <td>18216</td>\n\t                \n\t                    <td>asp</td>\n\t                    \n\t                    <td>SAVSGGHQVLKPADK</td>\n\t                    \n\t                    <td>leu</td>\n\t                    \n\t                    <td>15</td>\n\t                    \n\t                    <td>Bacillus subtilis strain MS1577 BS6, whole genome ...</td>\n\t                    \n\t                    <td>NZ_LFOC01000001.1.cluster006.gbk</td>\n\t                    \n\t            </tr>\n\t            <tr>\n\t                <td>18478</td>\n\t                \n\t                    <td>asp</td>\n\t                    \n\t                    <td>AVSEGYRMIRPAGAA</td>\n\t                    \n\t                    <td>leu</td>\n\t                    \n\t                    <td>15</td>\n\t                    \n\t                    <td>Bacillus amyloliquefaciens TA208, complete genome.</td>\n\t                    \n\t                    <td>NC_017188.1.cluster001.gbk</td>\n\t                    \n\t            </tr>\n\t            <tr>\n\t                <td>18747</td>\n\t                \n\t                    <td>asp</td>\n\t                    \n\t                    <td>DASLVTSIQPAEKQD</td>\n\t                    \n\t                    <td>leu</td>\n\t                    \n\t                    <td>15</td>\n\t                    \n\t                    <td>Bacillus stratosphericus strain LK5, whole genome ...</td>\n\t                    \n\t                    <td>NZ_LDUH01000001.1.cluster001.gbk</td>\n\t                    \n\t            </tr>\n\t            <tr>\n\t                <td>18783</td>\n\t                \n\t                    <td>asp</td>\n\t                    \n\t                    <td>DSSVVSSIQPADKQD</td>\n\t                    \n\t                    <td>leu</td>\n\t                    \n\t                    <td>15</td>\n\t                    \n\t                    <td>Bacillus safensis VK contig00005, whole genome sho...</td>\n\t                    \n\t                    <td>NZ_AUPF01000001.1.cluster002.gbk</td>\n\t                    \n\t            </tr>\n\t            <tr>\n\t                <td>18895</td>\n\t                \n\t                    <td>asp</td>\n\t                    \n\t                    <td>AQSGGYRKITPAKK</td>\n\t                    \n\t                    <td>leu</td>\n\t                    \n\t                    <td>14</td>\n\t                    \n\t                    <td>Bacillus atrophaeus UCMB-5137 genome.</td>\n\t                    \n\t                    <td>NZ_CP011802.1.cluster005.gbk</td>\n\t                    \n\t            </tr>\n\t            <tr>\n\t                <td>18910</td>\n\t                \n\t                    <td>asp</td>\n\t                    \n\t                    <td>VSAVSGGHQVLKPADK</td>\n\t                    \n\t                    <td>leu</td>\n\t                    \n\t                    <td>16</td>\n\t                    \n\t                    <td>Bacillus sp. F56, whole genome shotgun sequence.</td>\n\t                    \n\t                    <td>NZ_BDFC01000001.1.cluster002.gbk</td>\n\t                    \n\t            </tr>\n\t            <tr>\n\t                <td>19176</td>\n\t                \n\t                    <td>asp</td>\n\t                    \n\t                    <td>EGQSQQSAIQPAEKR</td>\n\t                    \n\t                    <td>leu</td>\n\t                    \n\t                    <td>15</td>\n\t                    \n\t                    <td>Bacillus sp. MSP5.4 contig00006, whole genome shot...</td>\n\t                    \n\t                    <td>NZ_JXAP01000001.1.cluster004.gbk</td>\n\t                    \n\t            </tr>\n\t            <tr>\n\t                <td>19478</td>\n\t                \n\t                    <td>asp</td>\n\t                    \n\t                    <td>AVSEGYRVITPADS</td>\n\t                    \n\t                    <td>leu</td>\n\t                    \n\t                    <td>14</td>\n\t                    \n\t                    <td>Bacillus velezensis strain KACC 13105 contig_1, wh...</td>\n\t                    \n\t                    <td>NZ_JTKJ02000001.1.cluster001.gbk</td>\n\t                    \n\t            </tr>\n\t            <tr>\n\t                <td>19880</td>\n\t                \n\t                    <td>asp</td>\n\t                    \n\t                    <td>AAVSGGHYVLKPADK</td>\n\t                    \n\t                    <td>leu</td>\n\t                    \n\t                    <td>15</td>\n\t                    \n\t                    <td>Bacillus sp. MSP13 contig00016, whole genome shotg...</td>\n\t                    \n\t                    <td>NZ_JXAQ01000001.1.cluster003.gbk</td>\n\t                    \n\t            </tr>\n\t            <tr>\n\t                <td>20242</td>\n\t                \n\t                    <td>asp</td>\n\t                    \n\t                    <td>EDQSVQSAIQPAEKS</td>\n\t                    \n\t                    <td>leu</td>\n\t                    \n\t                    <td>15</td>\n\t                    \n\t                    <td>Bacillus glycinifermentans strain KJ-17 Bacillus_s...</td>\n\t                    \n\t                    <td>NZ_LECV01000001.1.cluster004.gbk</td>\n\t                    \n\t            </tr>\n\t            <tr>\n\t                <td>20832</td>\n\t                \n\t                    <td>asp</td>\n\t                    \n\t                    <td>AVSEGYRVITPADS</td>\n\t                    \n\t                    <td>leu</td>\n\t                    \n\t                    <td>14</td>\n\t                    \n\t                    <td>Bacillus subtilis strain ATCC 19217, complete geno...</td>\n\t                    \n\t                    <td>NZ_CP009749.1.cluster001.gbk</td>\n\t                    \n\t            </tr>\n\t            <tr>\n\t                <td>20950</td>\n\t                \n\t                    <td>asp</td>\n\t                    \n\t                    <td>SAVSGGHQVLKPADK</td>\n\t                    \n\t                    <td>leu</td>\n\t                    \n\t                    <td>15</td>\n\t                    \n\t                    <td>Bacillus subtilis QH-1 contig4, whole genome shotg...</td>\n\t                    \n\t                    <td>NZ_AZQS01000001.1.cluster005.gbk</td>\n\t                    \n\t            </tr>\n\t            <tr>\n\t                <td>20982</td>\n\t                \n\t                    <td>asp</td>\n\t                    \n\t                    <td>SAVSGGHHVLKPADK</td>\n\t                    \n\t                    <td>leu</td>\n\t                    \n\t                    <td>15</td>\n\t                    \n\t                    <td>Bacillus subtilis subsp. spizizenii DV1-B-1 gbs3c....</td>\n\t                    \n\t                    <td>NZ_AFSG01000020.1.cluster003.gbk</td>\n\t                    \n\t            </tr>\n\t            <tr>\n\t                <td>21753</td>\n\t                \n\t                    <td>asp</td>\n\t                    \n\t                    <td>DASLVTSIQPAEKQD</td>\n\t                    \n\t                    <td>leu</td>\n\t                    \n\t                    <td>15</td>\n\t                    \n\t                    <td>Bacillus stratosphericus strain LK31, whole genome...</td>\n\t                    \n\t                    <td>NZ_LDWS01000001.1.cluster001.gbk</td>\n\t                    \n\t            </tr>\n\t            <tr>\n\t                <td>22018</td>\n\t                \n\t                    <td>asp</td>\n\t                    \n\t                    <td>GQAEQSGIQPAEKR</td>\n\t                    \n\t                    <td>leu</td>\n\t                    \n\t                    <td>14</td>\n\t                    \n\t                    <td>Bacillus licheniformis strain RE1.60 RE1.60_contig...</td>\n\t                    \n\t                    <td>NZ_LWKE01000001.1.cluster001.gbk</td>\n\t                    \n\t            </tr>\n\t            <tr>\n\t                <td>22220</td>\n\t                \n\t                    <td>asp</td>\n\t                    \n\t                    <td>SAVSRCHQVLKPADK</td>\n\t                    \n\t                    <td>leu</td>\n\t                    \n\t                    <td>15</td>\n\t                    \n\t                    <td>Bacillus subtilis strain RE1.1 RE1.1_contig_130, w...</td>\n\t                    \n\t                    <td>NZ_LWJX01000001.1.cluster001.gbk</td>\n\t                    \n\t            </tr>\n\t            <tr>\n\t                <td>22248</td>\n\t                \n\t                    <td>asp</td>\n\t                    \n\t                    <td>SAVSGGHQVLKPADKQ</td>\n\t                    \n\t                    <td>leu</td>\n\t                    \n\t                    <td>16</td>\n\t                    \n\t                    <td>Bacillus subtilis Hal1 Contig12, whole genome shot...</td>\n\t                    \n\t                    <td>NZ_AMCA01000001.1.cluster002.gbk</td>\n\t                    \n\t            </tr>\n\t            <tr>\n\t                <td>22258</td>\n\t                \n\t                    <td>asp</td>\n\t                    \n\t                    <td>DASLVTSIQPAEKQD</td>\n\t                    \n\t                    <td>leu</td>\n\t                    \n\t                    <td>15</td>\n\t                    \n\t                    <td>Bacillus sp. LK10, whole genome shotgun sequence.</td>\n\t                    \n\t                    <td>NZ_LDUQ01000001.1.cluster001.gbk</td>\n\t                    \n\t            </tr>\n\t            <tr>\n\t                <td>22678</td>\n\t                \n\t                    <td>asp</td>\n\t                    \n\t                    <td>AVSEGYRMIRPAGAA</td>\n\t                    \n\t                    <td>leu</td>\n\t                    \n\t                    <td>15</td>\n\t                    \n\t                    <td>Bacillus subtilis strain ATCC 13952, complete geno...</td>\n\t                    \n\t                    <td>NZ_CP009748.1.cluster001.gbk</td>\n\t                    \n\t            </tr>\n\t            <tr>\n\t                <td>22774</td>\n\t                \n\t                    <td>asp</td>\n\t                    \n\t                    <td>EGQSQQSAIQPAEKR</td>\n\t                    \n\t                    <td>leu</td>\n\t                    \n\t                    <td>15</td>\n\t                    \n\t                    <td>Bacillus licheniformis strain BL-09, complete geno...</td>\n\t                    \n\t                    <td>NZ_CP010524.1.cluster001.gbk</td>\n\t                    \n\t            </tr>\n\t            <tr>\n\t                <td>22875</td>\n\t                \n\t                    <td>asp</td>\n\t                    \n\t                    <td>AVSEGYRMIRPAGAA</td>\n\t                    \n\t                    <td>leu</td>\n\t                    \n\t                    <td>15</td>\n\t                    \n\t                    <td>Bacillus amyloliquefaciens LL3, complete genome.</td>\n\t                    \n\t                    <td>NC_017190.1.cluster001.gbk</td>\n\t                    \n\t            </tr>\n\t            <tr>\n\t                <td>22939</td>\n\t                \n\t                    <td>asp</td>\n\t                    \n\t                    <td>SAVSGGHQVLKPADK</td>\n\t                    \n\t                    <td>leu</td>\n\t                    \n\t                    <td>15</td>\n\t                    \n\t                    <td>Bacillus subtilis S1-4 S1-4_19, whole genome shotg...</td>\n\t                    \n\t                    <td>NZ_ANIP01000001.1.cluster002.gbk</td>\n\t                    \n\t            </tr>\n\t            <tr>\n\t                <td>22961</td>\n\t                \n\t                    <td>asp</td>\n\t                    \n\t                    <td>SAVSGGHHVLKPADK</td>\n\t                    \n\t                    <td>leu</td>\n\t                    \n\t                    <td>15</td>\n\t                    \n\t                    <td>Bacillus subtilis subsp. spizizenii strain NRS 231...</td>\n\t                    \n\t                    <td>NZ_CP010434.1.cluster001.gbk</td>\n\t                    \n\t            </tr>\n\t            <tr>\n\t                <td>23287</td>\n\t                \n\t                    <td>asp</td>\n\t                    \n\t                    <td>SAVSGGHQVLKPADK</td>\n\t                    \n\t                    <td>leu</td>\n\t                    \n\t                    <td>15</td>\n\t                    \n\t                    <td>Bacillus subtilis subsp. subtilis str. BAB-1, comp...</td>\n\t                    \n\t                    <td>NC_020832.1.cluster001.gbk</td>\n\t                    \n\t            </tr>\n\t            <tr>\n\t                <td>23986</td>\n\t                \n\t                    <td>asp</td>\n\t                    \n\t                    <td>SAVSGGHQVLKPADK</td>\n\t                    \n\t                    <td>leu</td>\n\t                    \n\t                    <td>15</td>\n\t                    \n\t                    <td>Bacillus subtilis strain B4146 NODE_61, whole geno...</td>\n\t                    \n\t                    <td>NZ_JXHR01000001.1.cluster003.gbk</td>\n\t                    \n\t            </tr>\n\t            <tr>\n\t                <td>24196</td>\n\t                \n\t                    <td>asp</td>\n\t                    \n\t                    <td>SAVSGGHQVLKPADK</td>\n\t                    \n\t                    <td>leu</td>\n\t                    \n\t                    <td>15</td>\n\t                    \n\t                    <td>Bacillus subtilis strain B4145 NODE_80, whole geno...</td>\n\t                    \n\t                    <td>NZ_JXHQ01000001.1.cluster004.gbk</td>\n\t                    \n\t            </tr>\n\t            <tr>\n\t                <td>24363</td>\n\t                \n\t                    <td>asp</td>\n\t                    \n\t                    <td>EDQSVQSAIQPAEKS</td>\n\t                    \n\t                    <td>leu</td>\n\t                    \n\t                    <td>15</td>\n\t                    \n\t                    <td>Bacillus glycinifermentans strain GO-13 contig_1, ...</td>\n\t                    \n\t                    <td>NZ_LECW02000001.1.cluster001.gbk</td>\n\t                    \n\t            </tr>\n\t            <tr>\n\t                <td>24858</td>\n\t                \n\t                    <td>asp</td>\n\t                    \n\t                    <td>DASLVTSIQPAEKQD</td>\n\t                    \n\t                    <td>leu</td>\n\t                    \n\t                    <td>15</td>\n\t                    \n\t                    <td>Bacillus aerophilus strain C772 NODE_4, whole geno...</td>\n\t                    \n\t                    <td>NZ_JXRO01000012.1.cluster002.gbk</td>\n\t                    \n\t            </tr>\n\t            <tr>\n\t                <td>25225</td>\n\t                \n\t                    <td>asp</td>\n\t                    \n\t                    <td>AVSEGYRVITPADS</td>\n\t                    \n\t                    <td>leu</td>\n\t                    \n\t                    <td>14</td>\n\t                    \n\t                    <td>Bacillus velezensis strain NBIF-003 Scaffold5, who...</td>\n\t                    \n\t                    <td>NZ_LJJY01000001.1.cluster005.gbk</td>\n\t                    \n\t            </tr>\n\t            <tr>\n\t                <td>25509</td>\n\t                \n\t                    <td>asp</td>\n\t                    \n\t                    <td>SAVSGGHQVLKPADK</td>\n\t                    \n\t                    <td>leu</td>\n\t                    \n\t                    <td>15</td>\n\t                    \n\t                    <td>Bacillus subtilis QB928, complete genome.</td>\n\t                    \n\t                    <td>NC_018520.1.cluster001.gbk</td>\n\t                    \n\t            </tr>\n\t            <tr>\n\t                <td>25902</td>\n\t                \n\t                    <td>asp</td>\n\t                    \n\t                    <td>DASLVTSIQPAEKQD</td>\n\t                    \n\t                    <td>leu</td>\n\t                    \n\t                    <td>15</td>\n\t                    \n\t                    <td>Bacillus stratosphericus strain LK18, whole genome...</td>\n\t                    \n\t                    <td>NZ_LDWI01000001.1.cluster002.gbk</td>\n\t                    \n\t            </tr>\n\t            <tr>\n\t                <td>26200</td>\n\t                \n\t                    <td>asp</td>\n\t                    \n\t                    <td>SAVSGGHHVLKPADK</td>\n\t                    \n\t                    <td>leu</td>\n\t                    \n\t                    <td>15</td>\n\t                    \n\t                    <td>Bacillus subtilis strain T30, complete genome.</td>\n\t                    \n\t                    <td>NZ_CP011051.1.cluster002.gbk</td>\n\t                    \n\t            </tr>\n\t            <tr>\n\t                <td>26464</td>\n\t                \n\t                    <td>asp</td>\n\t                    \n\t                    <td>SAVSGGHHVLKPADK</td>\n\t                    \n\t                    <td>leu</td>\n\t                    \n\t                    <td>15</td>\n\t                    \n\t                    <td>Bacillus subtilis subsp. spizizenii RFWG5B15 conti...</td>\n\t                    \n\t                    <td>NZ_AJHO01000001.1.cluster001.gbk</td>\n\t                    \n\t            </tr>\n\t            <tr>\n\t                <td>26657</td>\n\t                \n\t                    <td>asp</td>\n\t                    \n\t                    <td>DASLVTSIQPAEKQD</td>\n\t                    \n\t                    <td>leu</td>\n\t                    \n\t                    <td>15</td>\n\t                    \n\t                    <td>Bacillus pumilus strain NJ-M2, complete genome.</td>\n\t                    \n\t                    <td>NZ_CP012329.1.cluster001.gbk</td>\n\t                    \n\t            </tr>\n\t            <tr>\n\t                <td>26797</td>\n\t                \n\t                    <td>asp</td>\n\t                    \n\t                    <td>VGSSDMTSIQPAEKQD</td>\n\t                    \n\t                    <td>leu</td>\n\t                    \n\t                    <td>16</td>\n\t                    \n\t                    <td>Bacillus pumilus ATCC 7061 BAT.Contig112, whole ge...</td>\n\t                    \n\t                    <td>NZ_ABRX01000016.1.cluster003.gbk</td>\n\t                    \n\t            </tr>\n\t            <tr>\n\t                <td>27296</td>\n\t                \n\t                    <td>asp</td>\n\t                    \n\t                    <td>AVSEGYRMISPADS</td>\n\t                    \n\t                    <td>leu</td>\n\t                    \n\t                    <td>14</td>\n\t                    \n\t                    <td>Bacillus methylotrophicus strain JS25R, complete g...</td>\n\t                    \n\t                    <td>NZ_CP009679.1.cluster001.gbk</td>\n\t                    \n\t            </tr>\n\t            <tr>\n\t                <td>27406</td>\n\t                \n\t                    <td>asp</td>\n\t                    \n\t                    <td>AQSGGYRKITPAKK</td>\n\t                    \n\t                    <td>leu</td>\n\t                    \n\t                    <td>14</td>\n\t                    \n\t                    <td>Bacillus atrophaeus subsp. globigii strain BSS gen...</td>\n\t                    \n\t                    <td>NZ_CP007640.1.cluster006.gbk</td>\n\t                    \n\t            </tr>\n\t            <tr>\n\t                <td>27420</td>\n\t                \n\t                    <td>asp</td>\n\t                    \n\t                    <td>SAVSGGHQVLKPADK</td>\n\t                    \n\t                    <td>leu</td>\n\t                    \n\t                    <td>15</td>\n\t                    \n\t                    <td>Bacillus subtilis subsp. natto BEST195 DNA, comple...</td>\n\t                    \n\t                    <td>NC_017196.2.cluster001.gbk</td>\n\t                    \n\t            </tr>\n\t            <tr>\n\t                <td>28609</td>\n\t                \n\t                    <td>asp</td>\n\t                    \n\t                    <td>AVSEGYRMIRPAGAA</td>\n\t                    \n\t                    <td>leu</td>\n\t                    \n\t                    <td>15</td>\n\t                    \n\t                    <td>Bacillus amyloliquefaciens DSM7 complete genome.</td>\n\t                    \n\t                    <td>NC_014551.1.cluster001.gbk</td>\n\t                    \n\t            </tr>\n\t            <tr>\n\t                <td>28784</td>\n\t                \n\t                    <td>asp</td>\n\t                    \n\t                    <td>SAVSGGHQVLKPADK</td>\n\t                    \n\t                    <td>leu</td>\n\t                    \n\t                    <td>15</td>\n\t                    \n\t                    <td>Bacillus subtilis subsp. subtilis 6051-HGW, comple...</td>\n\t                    \n\t                    <td>NC_020507.1.cluster001.gbk</td>\n\t                    \n\t            </tr>\n\t            <tr>\n\t                <td>29435</td>\n\t                \n\t                    <td>asp</td>\n\t                    \n\t                    <td>SAVSGGHQVLKPADK</td>\n\t                    \n\t                    <td>leu</td>\n\t                    \n\t                    <td>15</td>\n\t                    \n\t                    <td>Bacillus subtilis strain B4071 NODE_126, whole gen...</td>\n\t                    \n\t                    <td>NZ_JXHN01000001.1.cluster001.gbk</td>\n\t                    \n\t            </tr>\n\t            <tr>\n\t                <td>29711</td>\n\t                \n\t                    <td>asp</td>\n\t                    \n\t                    <td>AVSEGYRMITPAAS</td>\n\t                    \n\t                    <td>leu</td>\n\t                    \n\t                    <td>14</td>\n\t                    \n\t                    <td>Bacillus velezensis strain 9912D, complete genome.</td>\n\t                    \n\t                    <td>NZ_CP017775.1.cluster001.gbk</td>\n\t                    \n\t            </tr>\n\t            <tr>\n\t                <td>30018</td>\n\t                \n\t                    <td>asp</td>\n\t                    \n\t                    <td>SAVSGGHHVLKPADK</td>\n\t                    \n\t                    <td>leu</td>\n\t                    \n\t                    <td>15</td>\n\t                    \n\t                    <td>Bacillus subtilis subsp. spizizenii RFWG1A4 contig...</td>\n\t                    \n\t                    <td>NZ_AJHM01000001.1.cluster001.gbk</td>\n\t                    \n\t            </tr>\n\t            <tr>\n\t                <td>30199</td>\n\t                \n\t                    <td>asp</td>\n\t                    \n\t                    <td>AASGGYHMLKPADK</td>\n\t                    \n\t                    <td>leu</td>\n\t                    \n\t                    <td>14</td>\n\t                    \n\t                    <td>Bacillus axarquiensis strain NRRL B-41617 contig_5...</td>\n\t                    \n\t                    <td>NZ_LPVD01000001.1.cluster005.gbk</td>\n\t                    \n\t            </tr>\n\t            <tr>\n\t                <td>30424</td>\n\t                \n\t                    <td>asp</td>\n\t                    \n\t                    <td>AVSEGYRMISPADS</td>\n\t                    \n\t                    <td>leu</td>\n\t                    \n\t                    <td>14</td>\n\t                    \n\t                    <td>Bacillus amyloliquefaciens subsp. plantarum UCMB51...</td>\n\t                    \n\t                    <td>NC_022081.1.cluster001.gbk</td>\n\t                    \n\t            </tr>\n\t            <tr>\n\t                <td>30651</td>\n\t                \n\t                    <td>asp</td>\n\t                    \n\t                    <td>AVSEGYRMIRPAGG</td>\n\t                    \n\t                    <td>leu</td>\n\t                    \n\t                    <td>14</td>\n\t                    \n\t                    <td>Bacillus amyloliquefaciens strain RD7-7, complete ...</td>\n\t                    \n\t                    <td>NZ_CP016913.1.cluster002.gbk</td>\n\t                    \n\t            </tr>\n\t            <tr>\n\t                <td>30932</td>\n\t                \n\t                    <td>asp</td>\n\t                    \n\t                    <td>DSSVVTSIQPAEKQD</td>\n\t                    \n\t                    <td>leu</td>\n\t                    \n\t                    <td>15</td>\n\t                    \n\t                    <td>Bacillus pumilus strain LK12, whole genome shotgun...</td>\n\t                    \n\t                    <td>NZ_LDUS01000001.1.cluster002.gbk</td>\n\t                    \n\t            </tr>\n\t            <tr>\n\t                <td>31038</td>\n\t                \n\t                    <td>asp</td>\n\t                    \n\t                    <td>GQAEQSGIQPAEKR</td>\n\t                    \n\t                    <td>leu</td>\n\t                    \n\t                    <td>14</td>\n\t                    \n\t                    <td>Bacillus licheniformis ATCC 14580, complete genome...</td>\n\t                    \n\t                    <td>NC_006270.3.cluster001.gbk</td>\n\t                    \n\t            </tr>\n\t            <tr>\n\t                <td>31887</td>\n\t                \n\t                    <td>asp</td>\n\t                    \n\t                    <td>SAVSGGHQVLKPADK</td>\n\t                    \n\t                    <td>leu</td>\n\t                    \n\t                    <td>15</td>\n\t                    \n\t                    <td>Bacillus gibsonii strain FJAT-10019, complete geno...</td>\n\t                    \n\t                    <td>NZ_CP017070.1.cluster004.gbk</td>\n\t                    \n\t            </tr>\n\t            <tr>\n\t                <td>32596</td>\n\t                \n\t                    <td>asp</td>\n\t                    \n\t                    <td>DASLVTSIQPAEKQD</td>\n\t                    \n\t                    <td>leu</td>\n\t                    \n\t                    <td>15</td>\n\t                    \n\t                    <td>Bacillus stratosphericus strain LK33, whole genome...</td>\n\t                    \n\t                    <td>NZ_LDWU01000001.1.cluster001.gbk</td>\n\t                    \n\t            </tr>\n\t            <tr>\n\t                <td>33229</td>\n\t                \n\t                    <td>asp</td>\n\t                    \n\t                    <td>GQAEQSGIQPAEKR</td>\n\t                    \n\t                    <td>leu</td>\n\t                    \n\t                    <td>14</td>\n\t                    \n\t                    <td>Bacillus licheniformis CGMCC 3963 contigs123, whol...</td>\n\t                    \n\t                    <td>NZ_AMWQ01000001.1.cluster003.gbk</td>\n\t                    \n\t            </tr>\n\t            <tr>\n\t                <td>33528</td>\n\t                \n\t                    <td>asp</td>\n\t                    \n\t                    <td>SAVSGGHQVLKPADK</td>\n\t                    \n\t                    <td>leu</td>\n\t                    \n\t                    <td>15</td>\n\t                    \n\t                    <td>Bacillus subtilis strain BS16045, complete genome.</td>\n\t                    \n\t                    <td>NZ_CP017112.1.cluster001.gbk</td>\n\t                    \n\t            </tr>\n\t            <tr>\n\t                <td>33539</td>\n\t                \n\t                    <td>asp</td>\n\t                    \n\t                    <td>EGQSQQSAIQPAEKR</td>\n\t                    \n\t                    <td>leu</td>\n\t                    \n\t                    <td>15</td>\n\t                    \n\t                    <td>Bacillus sp. CPSM8 SM8.a5.scaffold24.1, whole geno...</td>\n\t                    \n\t                    <td>NZ_ANNR02000036.1.cluster003.gbk</td>\n\t                    \n\t            </tr>\n\t            <tr>\n\t                <td>33654</td>\n\t                \n\t                    <td>asp</td>\n\t                    \n\t                    <td>VNSSDMTSIQPAEKQD</td>\n\t                    \n\t                    <td>leu</td>\n\t                    \n\t                    <td>16</td>\n\t                    \n\t                    <td>Bacillus pumilus strain Bonn contig00014, whole ge...</td>\n\t                    \n\t                    <td>NZ_LNCN01000001.1.cluster005.gbk</td>\n\t                    \n\t            </tr>\n\t            <tr>\n\t                <td>33739</td>\n\t                \n\t                    <td>asp</td>\n\t                    \n\t                    <td>SAVSGGHQVLKPADK</td>\n\t                    \n\t                    <td>leu</td>\n\t                    \n\t                    <td>15</td>\n\t                    \n\t                    <td>Bacillus subtilis subsp. subtilis str. 168 chromos...</td>\n\t                    \n\t                    <td>NC_000964.3.cluster001.gbk</td>\n\t                    \n\t            </tr>\n\t            <tr>\n\t                <td>33799</td>\n\t                \n\t                    <td>asp</td>\n\t                    \n\t                    <td>AVSEGYRVITPADS</td>\n\t                    \n\t                    <td>leu</td>\n\t                    \n\t                    <td>14</td>\n\t                    \n\t                    <td>Bacillus velezensis strain S3-1, complete genome.</td>\n\t                    \n\t                    <td>NZ_CP016371.1.cluster001.gbk</td>\n\t                    \n\t            </tr>\n\t            <tr>\n\t                <td>33822</td>\n\t                \n\t                    <td>asp</td>\n\t                    \n\t                    <td>GQAEQSGIQPAEKR</td>\n\t                    \n\t                    <td>leu</td>\n\t                    \n\t                    <td>14</td>\n\t                    \n\t                    <td>Bacillus licheniformis strain RE1.61 RE1.61_contig...</td>\n\t                    \n\t                    <td>NZ_LWKF01000001.1.cluster003.gbk</td>\n\t                    \n\t            </tr>\n\t            <tr>\n\t                <td>34523</td>\n\t                \n\t                    <td>asp</td>\n\t                    \n\t                    <td>SAVSGVHQVLKPADK</td>\n\t                    \n\t                    <td>leu</td>\n\t                    \n\t                    <td>15</td>\n\t                    \n\t                    <td>Bacillus subtilis strain fmb60, whole genome shotg...</td>\n\t                    \n\t                    <td>NZ_LYMC01000001.1.cluster001.gbk</td>\n\t                    \n\t            </tr>\n\t            <tr>\n\t                <td>34601</td>\n\t                \n\t                    <td>asp</td>\n\t                    \n\t                    <td>GQAEQSGIQPAEKR</td>\n\t                    \n\t                    <td>leu</td>\n\t                    \n\t                    <td>14</td>\n\t                    \n\t                    <td>Bacillus licheniformis strain 5NAP23 LG49.Contig2,...</td>\n\t                    \n\t                    <td>NZ_JYBQ01000001.1.cluster002.gbk</td>\n\t                    \n\t            </tr>\n\t            <tr>\n\t                <td>34779</td>\n\t                \n\t                    <td>asp</td>\n\t                    \n\t                    <td>SAVSGGHQVLKPADK</td>\n\t                    \n\t                    <td>leu</td>\n\t                    \n\t                    <td>15</td>\n\t                    \n\t                    <td>Bacillus subtilis strain KATMIRA1933 B_sub_1933_01...</td>\n\t                    \n\t                    <td>NZ_JMEF01000001.1.cluster001.gbk</td>\n\t                    \n\t            </tr>\n\t            <tr>\n\t                <td>35011</td>\n\t                \n\t                    <td>asp</td>\n\t                    \n\t                    <td>VDSSDITSIHPAEKQD</td>\n\t                    \n\t                    <td>leu</td>\n\t                    \n\t                    <td>16</td>\n\t                    \n\t                    <td>Bacillus pumilus strain PDSLzg-1, complete genome.</td>\n\t                    \n\t                    <td>NZ_CP016784.1.cluster002.gbk</td>\n\t                    \n\t            </tr>\n\t            <tr>\n\t                <td>35142</td>\n\t                \n\t                    <td>asp</td>\n\t                    \n\t                    <td>DASLVTSIQPAEKQD</td>\n\t                    \n\t                    <td>leu</td>\n\t                    \n\t                    <td>15</td>\n\t                    \n\t                    <td>Bacillus pumilus strain MTCC B6033, complete genom...</td>\n\t                    \n\t                    <td>NZ_CP007436.1.cluster001.gbk</td>\n\t                    \n\t            </tr>\n\t            <tr>\n\t                <td>35304</td>\n\t                \n\t                    <td>asp</td>\n\t                    \n\t                    <td>EGQSQQSAIQPAEKR</td>\n\t                    \n\t                    <td>leu</td>\n\t                    \n\t                    <td>15</td>\n\t                    \n\t                    <td>Bacillus paralicheniformis strain APC1576 NODE_10_...</td>\n\t                    \n\t                    <td>NZ_LXPD01000014.1.cluster001.gbk</td>\n\t                    \n\t            </tr>\n\t            <tr>\n\t                <td>35494</td>\n\t                \n\t                    <td>asp</td>\n\t                    \n\t                    <td>AVSEGYRMITPADS</td>\n\t                    \n\t                    <td>leu</td>\n\t                    \n\t                    <td>14</td>\n\t                    \n\t                    <td>Bacillus amyloliquefaciens subsp. plantarum CAU B9...</td>\n\t                    \n\t                    <td>NC_016784.1.cluster001.gbk</td>\n\t                    \n\t            </tr>\n\t            <tr>\n\t                <td>35723</td>\n\t                \n\t                    <td>asp</td>\n\t                    \n\t                    <td>AVSEGYRMISPADS</td>\n\t                    \n\t                    <td>leu</td>\n\t                    \n\t                    <td>14</td>\n\t                    \n\t                    <td>Bacillus amyloliquefaciens subsp. amyloliquefacien...</td>\n\t                    \n\t                    <td>NZ_CP007242.1.cluster001.gbk</td>\n\t                    \n\t            </tr>\n\t            <tr>\n\t                <td>35809</td>\n\t                \n\t                    <td>asp</td>\n\t                    \n\t                    <td>SAVSGGHQVLKPADK</td>\n\t                    \n\t                    <td>leu</td>\n\t                    \n\t                    <td>15</td>\n\t                    \n\t                    <td>Bacillus subtilis strain HM-66 Contig25, whole gen...</td>\n\t                    \n\t                    <td>NZ_JXBC01000001.1.cluster002.gbk</td>\n\t                    \n\t            </tr>\n\t            <tr>\n\t                <td>35946</td>\n\t                \n\t                    <td>asp</td>\n\t                    \n\t                    <td>SAVSGGHQVLKPADK</td>\n\t                    \n\t                    <td>leu</td>\n\t                    \n\t                    <td>15</td>\n\t                    \n\t                    <td>Bacillus subtilis subsp. natto strain CGMCC 2108.</td>\n\t                    \n\t                    <td>NZ_CP014471.1.cluster001.gbk</td>\n\t                    \n\t            </tr>\n\t            <tr>\n\t                <td>36173</td>\n\t                \n\t                    <td>asp</td>\n\t                    \n\t                    <td>GQAEQSGIQPAEKR</td>\n\t                    \n\t                    <td>leu</td>\n\t                    \n\t                    <td>14</td>\n\t                    \n\t                    <td>Bacillus sp. BT1B_CT2 genomic scaffold supercont1....</td>\n\t                    \n\t                    <td>NZ_GL635726.1.cluster002.gbk</td>\n\t                    \n\t            </tr>\n\t            <tr>\n\t                <td>36205</td>\n\t                \n\t                    <td>asp</td>\n\t                    \n\t                    <td>VSSVSGGHHVLKPADK</td>\n\t                    \n\t                    <td>leu</td>\n\t                    \n\t                    <td>16</td>\n\t                    \n\t                    <td>Bacillus subtilis subsp. spizizenii TU-B-10, compl...</td>\n\t                    \n\t                    <td>NC_016047.1.cluster001.gbk</td>\n\t                    \n\t            </tr>\n\t            <tr>\n\t                <td>36380</td>\n\t                \n\t                    <td>asp</td>\n\t                    \n\t                    <td>VSSVSGGHHVLKPADK</td>\n\t                    \n\t                    <td>leu</td>\n\t                    \n\t                    <td>16</td>\n\t                    \n\t                    <td>Jeotgalibacillus marinus strain DSM 1297 scaffold1...</td>\n\t                    \n\t                    <td>NZ_LILA01000011.1.cluster004.gbk</td>\n\t                    \n\t            </tr>\n\t            <tr>\n\t                <td>37076</td>\n\t                \n\t                    <td>asp</td>\n\t                    \n\t                    <td>EKSDYVDIQPAPL</td>\n\t                    \n\t                    <td>leu</td>\n\t                    \n\t                    <td>13</td>\n\t                    \n\t                    <td>Brevibacillus laterosporus LMG 15441, complete gen...</td>\n\t                    \n\t                    <td>NZ_CP007806.1.cluster003.gbk</td>\n\t                    \n\t            </tr>\n\t            <tr>\n\t                <td>37435</td>\n\t                \n\t                    <td>asp</td>\n\t                    \n\t                    <td>EGQSVQSGIQPAEKR</td>\n\t                    \n\t                    <td>leu</td>\n\t                    \n\t                    <td>15</td>\n\t                    \n\t                    <td>Bacillus licheniformis S 16 Bacillus_licheniformis...</td>\n\t                    \n\t                    <td>NZ_AZYP01000001.1.cluster006.gbk</td>\n\t                    \n\t            </tr>\n\t            <tr>\n\t                <td>37532</td>\n\t                \n\t                    <td>asp</td>\n\t                    \n\t                    <td>AVSEGYRMISPADS</td>\n\t                    \n\t                    <td>leu</td>\n\t                    \n\t                    <td>14</td>\n\t                    \n\t                    <td>Bacillus subtilis strain Bs-916, complete genome.</td>\n\t                    \n\t                    <td>NZ_CP009611.1.cluster002.gbk</td>\n\t                    \n\t            </tr>\n\t            <tr>\n\t                <td>37647</td>\n\t                \n\t                    <td>asp</td>\n\t                    \n\t                    <td>SAVSGGHQVLKPADK</td>\n\t                    \n\t                    <td>leu</td>\n\t                    \n\t                    <td>15</td>\n\t                    \n\t                    <td>Bacillus subtilis subsp. subtilis strain CU1050, c...</td>\n\t                    \n\t                    <td>NZ_CP014166.1.cluster001.gbk</td>\n\t                    \n\t            </tr>\n\t            <tr>\n\t                <td>37800</td>\n\t                \n\t                    <td>asp</td>\n\t                    \n\t                    <td>SAVSGGHQVLKPADK</td>\n\t                    \n\t                    <td>leu</td>\n\t                    \n\t                    <td>15</td>\n\t                    \n\t                    <td>Bacillus sp. genome assembly BS34ACh, chromosome :...</td>\n\t                    \n\t                    <td>NZ_LN680001.1.cluster001.gbk</td>\n\t                    \n\t            </tr>\n\t            <tr>\n\t                <td>37951</td>\n\t                \n\t                    <td>asp</td>\n\t                    \n\t                    <td>SAVSGGHHVLKPADK</td>\n\t                    \n\t                    <td>leu</td>\n\t                    \n\t                    <td>15</td>\n\t                    \n\t                    <td>Bacillus subtilis strain BST genomic scaffold scaf...</td>\n\t                    \n\t                    <td>NZ_KN049967.1.cluster003.gbk</td>\n\t                    \n\t            </tr>\n\t            <tr>\n\t                <td>38199</td>\n\t                \n\t                    <td>asp</td>\n\t                    \n\t                    <td>AQSGGYRKITPAKK</td>\n\t                    \n\t                    <td>leu</td>\n\t                    \n\t                    <td>14</td>\n\t                    \n\t                    <td>Bacillus atrophaeus NBRC 15539 DNA, contig: BAT01S...</td>\n\t                    \n\t                    <td>NZ_BCVV01000001.1.cluster005.gbk</td>\n\t                    \n\t            </tr>\n\t            <tr>\n\t                <td>38684</td>\n\t                \n\t                    <td>asp</td>\n\t                    \n\t                    <td>SAVSGGHQVLKPADK</td>\n\t                    \n\t                    <td>leu</td>\n\t                    \n\t                    <td>15</td>\n\t                    \n\t                    <td>Bacillus subtilis genome assembly BS49Ch, chromoso...</td>\n\t                    \n\t                    <td>NZ_LN649259.1.cluster001.gbk</td>\n\t                    \n\t            </tr>\n\t        </tbody>\n\t    </table>'
p6
aS'New Linkers Table:'
p7
aS'Old Linkers Table:'
p8
aVIle,Cys,Leu,D-Glu,Ile--Lys,D-Orn--Ile,D-Phe,His,D-Asp,Asn
p9
aVIle,Cys,Leu,D-Glu,Ile--Lys,D-Orn--Ile,D-Phe,His,D-Asp,Leu
p10
ac__builtin__
set
p11
((lp12
(Vd-asp
p13
Vleu
p14
tp15
atp16
Rp17
a(lp18
aI1
a(lp19
((Vd-asp
p20
Vasn
p21
tp22
(Vd-asp
p23
Vleu
p24
I2
tp25
I0
I2
tp26
aa.